(lp0
(lp1
(dp2
((F2.25
F1.25
S'S'
p3
tp4
c__builtin__
frozenset
p5
((lp6
S'base2'
p7
aS'base'
p8
atp9
Rp10
I1
tp11
(lp12
(lp13
(S'F'
p14
S'R'
p15
tp16
a(g3
S'T'
p17
tp18
a(g17
S'L'
p19
tp20
a(g17
g15
tp21
aa(lp22
F0.0
aF1.0
aF0.0
aF0.0
aas((F0.75
F1.25
S'N'
p23
tp24
g5
((lp25
tp26
Rp27
I0
tp28
(lp29
(lp30
g16
a(S'B'
p31
S'K'
p32
tp33
ag18
ag20
ag21
aa(lp34
F0.2
aF0.2
aF0.2
aF0.2
aF0.2
aas((F2.25
F1.25
S'W'
p35
tp36
g10
I0
tp37
(lp38
(lp39
g16
ag18
ag20
ag21
aa(lp40
F0.25
aF0.25
aF0.25
aF0.25
aas((F1.75
F0.25
g23
tp41
g27
I1
tp42
(lp43
(lp44
g16
ag18
ag20
ag21
aa(lp45
F0.25
aF0.25
aF0.25
aF0.25
aas((F2.25
F0.25
g23
tp46
g5
((lp47
S'base1'
p48
ag8
atp49
Rp50
I0
tp51
(lp52
(lp53
g16
ag18
ag20
ag21
aa(lp54
F1.0
aF0.0
aF0.0
aF0.0
aas((F1.25
F0.25
g35
tp55
g27
I1
tp56
(lp57
(lp58
g16
ag33
ag21
ag18
ag20
aa(lp59
F0.2
aF0.2
aF0.2
aF0.2
aF0.2
aas((F1.25
F0.25
g23
tp60
g27
I1
tp61
(lp62
(lp63
g16
ag18
ag20
ag21
aa(lp64
F0.25
aF0.25
aF0.25
aF0.25
aas((F0.25
F0.25
g23
tp65
g27
I1
tp66
(lp67
(lp68
g16
ag18
ag20
ag21
aa(lp69
F0.25
aF0.25
aF0.25
aF0.25
aas((F1.25
F0.75
g3
tp70
g27
I1
tp71
(lp72
(lp73
g16
ag33
ag21
ag18
ag20
aa(lp74
F0.2
aF0.2
aF0.2
aF0.2
aF0.2
aas((F0.75
F1.75
g35
tp75
g27
I1
tp76
(lp77
(lp78
g16
ag18
ag20
ag21
aa(lp79
F0.25
aF0.25
aF0.25
aF0.25
aas((F1.75
F0.75
g3
tp80
g27
I0
tp81
(lp82
(lp83
g16
ag33
ag21
ag18
ag20
aa(lp84
F0.2
aF0.2
aF0.2
aF0.2
aF0.2
aas((F0.75
F1.25
g3
tp85
g27
I0
tp86
(lp87
(lp88
g16
ag18
ag21
ag20
ag33
aa(lp89
F0.2
aF0.2
aF0.2
aF0.2
aF0.2
aas((F0.25
F0.25
g23
tp90
g27
I0
tp91
(lp92
(lp93
g16
ag18
ag20
ag21
aa(lp94
F0.0
aF0.0
aF0.0
aF1.0
aas((F1.75
F0.75
S'E'
p95
tp96
g27
I0
tp97
(lp98
(lp99
g20
ag16
ag33
ag18
ag21
aa(lp100
F0.0
aF1.0
aF0.0
aF0.0
aF0.0
aas((F0.75
F1.75
g23
tp101
g27
I0
tp102
(lp103
(lp104
g18
ag21
ag20
ag33
aa(lp105
F0.25
aF0.25
aF0.25
aF0.25
aas((F0.25
F0.75
g35
tp106
g27
I0
tp107
(lp108
(lp109
g33
ag21
ag18
ag20
aa(lp110
F0.25
aF0.25
aF0.25
aF0.25
aas((F0.75
F0.75
g3
tp111
g27
I0
tp112
(lp113
(lp114
g16
ag33
ag21
ag18
ag20
aa(lp115
F0.2
aF0.2
aF0.2
aF0.2
aF0.2
aas((F0.75
F0.25
g35
tp116
g27
I1
tp117
(lp118
(lp119
g16
ag18
ag21
ag20
ag33
aa(lp120
F0.2
aF0.2
aF0.2
aF0.2
aF0.2
aas((F1.25
F0.75
g95
tp121
g27
I0
tp122
(lp123
(lp124
g20
ag16
ag33
ag18
ag21
aa(lp125
F0.0
aF1.0
aF0.0
aF0.0
aF0.0
aas((F1.25
F0.75
g23
tp126
g27
I0
tp127
(lp128
(lp129
g16
ag33
ag18
ag20
ag21
aa(lp130
F0.2
aF0.2
aF0.2
aF0.2
aF0.2
aas((F0.25
F0.25
g35
tp131
g27
I0
tp132
(lp133
(lp134
g33
ag21
ag18
ag20
aa(lp135
F0.25
aF0.25
aF0.25
aF0.25
aas((F2.25
F0.75
g23
tp136
g27
I1
tp137
(lp138
(lp139
g16
ag33
ag18
ag20
ag21
aa(lp140
F1.0
aF0.0
aF0.0
aF0.0
aF0.0
aas((F2.25
F0.25
g3
tp141
g50
I0
tp142
(lp143
(lp144
g20
ag33
ag18
ag21
aa(lp145
F0.0
aF1.0
aF0.0
aF0.0
aas((F2.25
F1.25
g23
tp146
g10
I1
tp147
(lp148
(lp149
g33
ag21
ag18
ag20
aa(lp150
F0.0
aF0.0
aF1.0
aF0.0
aas((F0.25
F0.75
g95
tp151
g27
I0
tp152
(lp153
(lp154
g16
ag18
ag20
ag21
aa(lp155
F0.25
aF0.25
aF0.25
aF0.25
aas((F0.75
F1.25
g23
tp156
g27
I1
tp157
(lp158
(lp159
g16
ag33
ag18
ag20
ag21
aa(lp160
F0.2
aF0.2
aF0.2
aF0.2
aF0.2
aas((F0.75
F1.75
g95
tp161
g27
I0
tp162
(lp163
(lp164
g18
ag33
ag20
ag21
aa(lp165
F0.25
aF0.25
aF0.25
aF0.25
aas((F2.25
F1.25
g95
tp166
g10
I1
tp167
(lp168
(lp169
g18
ag21
ag20
ag33
aa(lp170
F0.25
aF0.25
aF0.25
aF0.25
aas((F1.75
F0.25
g3
tp171
g27
I0
tp172
(lp173
(lp174
g20
ag33
ag18
ag21
aa(lp175
F1.0
aF0.0
aF0.0
aF0.0
aas((F2.25
F0.25
g35
tp176
g50
I0
tp177
(lp178
(lp179
g16
ag18
ag20
ag21
aa(lp180
F0.25
aF0.25
aF0.25
aF0.25
aas((F1.25
F0.25
g3
tp181
g27
I1
tp182
(lp183
(lp184
g20
ag33
ag18
ag21
aa(lp185
F0.25
aF0.25
aF0.25
aF0.25
aas(g36
g10
I1
tp186
(lp187
(lp188
g16
ag18
ag20
ag21
aa(lp189
F0.25
aF0.25
aF0.25
aF0.25
aas((F0.25
F1.25
g35
tp190
g5
((lp191
S'base3'
p192
ag8
atp193
Rp194
I0
tp195
(lp196
(lp197
g33
ag21
ag18
ag20
aa(lp198
F0.25
aF0.25
aF0.25
aF0.25
aas((F2.25
F0.75
g35
tp199
g27
I0
tp200
(lp201
(lp202
g16
ag18
ag20
ag21
aa(lp203
F0.0
aF0.0
aF0.0
aF1.0
aas((F0.75
F0.25
g23
tp204
g27
I1
tp205
(lp206
(lp207
g16
ag18
ag20
ag21
aa(lp208
F0.25
aF0.25
aF0.25
aF0.25
aas((F0.75
F1.75
g3
tp209
g27
I0
tp210
(lp211
(lp212
g16
ag18
ag20
ag21
aa(lp213
F0.25
aF0.25
aF0.25
aF0.25
aas((F2.25
F0.75
g3
tp214
g27
I0
tp215
(lp216
(lp217
g16
ag33
ag21
ag18
ag20
aa(lp218
F1.0
aF0.0
aF0.0
aF0.0
aF0.0
aas((F0.75
F0.25
g35
tp219
g27
I0
tp220
(lp221
(lp222
g16
ag18
ag21
ag20
ag33
aa(lp223
F0.2
aF0.2
aF0.2
aF0.2
aF0.2
aas((F0.75
F1.25
g95
tp224
g27
I0
tp225
(lp226
(lp227
g16
ag18
ag33
ag20
ag21
aa(lp228
F0.2
aF0.2
aF0.2
aF0.2
aF0.2
aas(g80
g27
I1
tp229
(lp230
(lp231
g16
ag33
ag21
ag18
ag20
aa(lp232
F0.2
aF0.2
aF0.2
aF0.2
aF0.2
aas((F0.25
F0.75
g23
tp233
g27
I0
tp234
(lp235
(lp236
g16
ag33
ag18
ag20
ag21
aa(lp237
F0.2
aF0.2
aF0.2
aF0.2
aF0.2
aas((F1.25
F0.25
g3
tp238
g27
I0
tp239
(lp240
(lp241
g20
ag33
ag18
ag21
aa(lp242
F0.25
aF0.25
aF0.25
aF0.25
aas((F0.25
F1.25
g3
tp243
g194
I1
tp244
(lp245
(lp246
g16
ag33
ag21
ag18
ag20
aa(lp247
F0.2
aF0.2
aF0.2
aF0.2
aF0.2
aas((F0.75
F1.25
g35
tp248
g27
I0
tp249
(lp250
(lp251
g16
ag18
ag33
ag20
ag21
aa(lp252
F0.2
aF0.2
aF0.2
aF0.2
aF0.2
aas((F2.25
F0.75
g95
tp253
g27
I0
tp254
(lp255
(lp256
g18
ag33
ag20
ag21
aa(lp257
F0.0
aF0.0
aF1.0
aF0.0
aas((F1.75
F0.25
g3
tp258
g27
I1
tp259
(lp260
(lp261
g20
ag33
ag18
ag21
aa(lp262
F0.25
aF0.25
aF0.25
aF0.25
aas((F1.75
F0.75
g35
tp263
g27
I0
tp264
(lp265
(lp266
g16
ag33
ag21
ag18
ag20
aa(lp267
F0.2
aF0.2
aF0.2
aF0.2
aF0.2
aas((F0.25
F1.25
g23
tp268
g194
I0
tp269
(lp270
(lp271
g16
ag18
ag33
ag20
ag21
aa(lp272
F0.2
aF0.2
aF0.2
aF0.2
aF0.2
aas((F0.75
F1.75
g3
tp273
g27
I1
tp274
(lp275
(lp276
g16
ag18
ag20
ag21
aa(lp277
F0.25
aF0.25
aF0.25
aF0.25
aas((F0.25
F1.25
g95
tp278
g194
I1
tp279
(lp280
(lp281
g16
ag18
ag20
ag21
aa(lp282
F0.25
aF0.25
aF0.25
aF0.25
aas((F0.75
F0.75
g35
tp283
g27
I0
tp284
(lp285
(lp286
g16
ag18
ag33
ag20
ag21
aa(lp287
F0.2
aF0.2
aF0.2
aF0.2
aF0.2
aas((F1.75
F0.75
g23
tp288
g27
I1
tp289
(lp290
(lp291
g16
ag33
ag18
ag20
ag21
aa(lp292
F1.0
aF0.0
aF0.0
aF0.0
aF0.0
aas((F0.25
F0.75
g3
tp293
g27
I0
tp294
(lp295
(lp296
g20
ag16
ag33
ag18
ag21
aa(lp297
F0.2
aF0.2
aF0.2
aF0.2
aF0.2
aas((F2.25
F0.75
g23
tp298
g27
I0
tp299
(lp300
(lp301
g16
ag33
ag18
ag20
ag21
aa(lp302
F0.0
aF1.0
aF0.0
aF0.0
aF0.0
aas((F2.25
F0.25
g95
tp303
g50
I1
tp304
(lp305
(lp306
g18
ag33
ag20
ag21
aa(lp307
F0.0
aF0.0
aF1.0
aF0.0
aas((F0.25
F0.25
g35
tp308
g27
I1
tp309
(lp310
(lp311
g33
ag21
ag18
ag20
aa(lp312
F0.25
aF0.25
aF0.25
aF0.25
aas((F2.25
F1.25
g3
tp313
g10
I0
tp314
(lp315
(lp316
g16
ag18
ag20
ag21
aa(lp317
F1.0
aF0.0
aF0.0
aF0.0
aas((F1.25
F0.75
g35
tp318
g27
I1
tp319
(lp320
(lp321
g16
ag18
ag33
ag20
ag21
aa(lp322
F0.2
aF0.2
aF0.2
aF0.2
aF0.2
aas((F2.25
F0.25
g23
tp323
g50
I1
tp324
(lp325
(lp326
g16
ag18
ag20
ag21
aa(lp327
F1.0
aF0.0
aF0.0
aF0.0
aas(g41
g27
I0
tp328
(lp329
(lp330
g16
ag18
ag20
ag21
aa(lp331
F0.0
aF0.0
aF0.0
aF1.0
aas((F1.25
F0.75
g95
tp332
g27
I1
tp333
(lp334
(lp335
g20
ag16
ag33
ag18
ag21
aa(lp336
F0.2
aF0.2
aF0.2
aF0.2
aF0.2
aas((F1.25
F0.75
g35
tp337
g27
I0
tp338
(lp339
(lp340
g16
ag18
ag33
ag20
ag21
aa(lp341
F0.2
aF0.2
aF0.2
aF0.2
aF0.2
aas((F0.75
F1.75
g35
tp342
g27
I0
tp343
(lp344
(lp345
g16
ag18
ag20
ag21
aa(lp346
F0.25
aF0.25
aF0.25
aF0.25
aas((F0.75
F1.25
g35
tp347
g27
I1
tp348
(lp349
(lp350
g16
ag18
ag33
ag20
ag21
aa(lp351
F0.2
aF0.2
aF0.2
aF0.2
aF0.2
aas((F2.25
F0.75
g3
tp352
g27
I1
tp353
(lp354
(lp355
g16
ag33
ag21
ag18
ag20
aa(lp356
F0.0
aF1.0
aF0.0
aF0.0
aF0.0
aas((F0.75
F0.25
g95
tp357
g27
I1
tp358
(lp359
(lp360
g16
ag18
ag33
ag20
ag21
aa(lp361
F0.2
aF0.2
aF0.2
aF0.2
aF0.2
aas((F0.75
F0.75
g35
tp362
g27
I1
tp363
(lp364
(lp365
g16
ag18
ag33
ag20
ag21
aa(lp366
F0.2
aF0.2
aF0.2
aF0.2
aF0.2
aas((F1.25
F0.25
g35
tp367
g27
I0
tp368
(lp369
(lp370
g16
ag33
ag21
ag18
ag20
aa(lp371
F0.2
aF0.2
aF0.2
aF0.2
aF0.2
aas((F0.25
F0.25
g95
tp372
g27
I1
tp373
(lp374
(lp375
g16
ag18
ag20
ag21
aa(lp376
F0.25
aF0.25
aF0.25
aF0.25
aas((F0.25
F0.75
g35
tp377
g27
I1
tp378
(lp379
(lp380
g33
ag21
ag18
ag20
aa(lp381
F0.25
aF0.25
aF0.25
aF0.25
aas(g85
g27
I1
tp382
(lp383
(lp384
g16
ag18
ag21
ag20
ag33
aa(lp385
F0.2
aF0.2
aF0.2
aF0.2
aF0.2
aas((F0.75
F0.25
g23
tp386
g27
I0
tp387
(lp388
(lp389
g16
ag18
ag20
ag21
aa(lp390
F0.25
aF0.25
aF0.25
aF0.25
aas((F0.25
F0.75
g95
tp391
g27
I1
tp392
(lp393
(lp394
g16
ag18
ag20
ag21
aa(lp395
F0.25
aF0.25
aF0.25
aF0.25
aas((F0.75
F1.25
g95
tp396
g27
I1
tp397
(lp398
(lp399
g16
ag18
ag33
ag20
ag21
aa(lp400
F0.2
aF0.2
aF0.2
aF0.2
aF0.2
aas(g166
g10
I0
tp401
(lp402
(lp403
g18
ag21
ag20
ag33
aa(lp404
F0.0
aF1.0
aF0.0
aF0.0
aas((F1.25
F0.75
g23
tp405
g27
I1
tp406
(lp407
(lp408
g16
ag33
ag18
ag20
ag21
aa(lp409
F0.2
aF0.2
aF0.2
aF0.2
aF0.2
aas((F1.75
F0.25
g35
tp410
g27
I0
tp411
(lp412
(lp413
g16
ag18
ag33
ag20
ag21
aa(lp414
F0.2
aF0.2
aF0.2
aF0.2
aF0.2
aas((F0.25
F0.25
g3
tp415
g27
I1
tp416
(lp417
(lp418
g18
ag21
ag20
ag33
aa(lp419
F0.25
aF0.25
aF0.25
aF0.25
aas((F0.75
F0.75
g23
tp420
g27
I0
tp421
(lp422
(lp423
g16
ag33
ag18
ag20
ag21
aa(lp424
F0.2
aF0.2
aF0.2
aF0.2
aF0.2
aas((F0.75
F0.75
g23
tp425
g27
I1
tp426
(lp427
(lp428
g16
ag33
ag18
ag20
ag21
aa(lp429
F0.2
aF0.2
aF0.2
aF0.2
aF0.2
aas((F1.25
F0.25
g95
tp430
g27
I1
tp431
(lp432
(lp433
g20
ag16
ag33
ag18
ag21
aa(lp434
F0.2
aF0.2
aF0.2
aF0.2
aF0.2
aas((F0.75
F0.25
g3
tp435
g27
I0
tp436
(lp437
(lp438
g20
ag33
ag18
ag21
aa(lp439
F0.25
aF0.25
aF0.25
aF0.25
aas(g146
g10
I0
tp440
(lp441
(lp442
g33
ag21
ag18
ag20
aa(lp443
F0.25
aF0.25
aF0.25
aF0.25
aas((F2.25
F0.25
g3
tp444
g50
I1
tp445
(lp446
(lp447
g20
ag33
ag18
ag21
aa(lp448
F0.25
aF0.25
aF0.25
aF0.25
aas((F0.25
F0.75
g3
tp449
g27
I1
tp450
(lp451
(lp452
g20
ag16
ag33
ag18
ag21
aa(lp453
F0.2
aF0.2
aF0.2
aF0.2
aF0.2
aas((F1.75
F0.75
g23
tp454
g27
I0
tp455
(lp456
(lp457
g16
ag33
ag18
ag20
ag21
aa(lp458
F0.2
aF0.2
aF0.2
aF0.2
aF0.2
aas((F2.25
F0.75
g95
tp459
g27
I1
tp460
(lp461
(lp462
g18
ag33
ag20
ag21
aa(lp463
F0.25
aF0.25
aF0.25
aF0.25
aas((F0.25
F0.75
g23
tp464
g27
I1
tp465
(lp466
(lp467
g16
ag33
ag18
ag20
ag21
aa(lp468
F0.2
aF0.2
aF0.2
aF0.2
aF0.2
aas((F0.25
F0.25
g3
tp469
g27
I0
tp470
(lp471
(lp472
g18
ag21
ag20
ag33
aa(lp473
F0.0
aF0.0
aF1.0
aF0.0
aas((F0.25
F0.25
g95
tp474
g27
I0
tp475
(lp476
(lp477
g16
ag18
ag20
ag21
aa(lp478
F1.0
aF0.0
aF0.0
aF0.0
aas((F1.25
F0.25
g95
tp479
g27
I0
tp480
(lp481
(lp482
g20
ag16
ag33
ag18
ag21
aa(lp483
F0.0
aF1.0
aF0.0
aF0.0
aF0.0
aas((F1.75
F0.75
g35
tp484
g27
I1
tp485
(lp486
(lp487
g16
ag33
ag21
ag18
ag20
aa(lp488
F0.2
aF0.2
aF0.2
aF0.2
aF0.2
aas((F2.25
F0.25
g35
tp489
g50
I1
tp490
(lp491
(lp492
g16
ag18
ag20
ag21
aa(lp493
F0.0
aF0.0
aF0.0
aF1.0
aas((F0.75
F0.75
g95
tp494
g27
I1
tp495
(lp496
(lp497
g20
ag16
ag33
ag18
ag21
aa(lp498
F0.2
aF0.2
aF0.2
aF0.2
aF0.2
aas((F0.25
F1.25
g35
tp499
g194
I1
tp500
(lp501
(lp502
g33
ag21
ag18
ag20
aa(lp503
F0.25
aF0.25
aF0.25
aF0.25
aas((F1.75
F0.25
g35
tp504
g27
I1
tp505
(lp506
(lp507
g16
ag18
ag33
ag20
ag21
aa(lp508
F0.2
aF0.2
aF0.2
aF0.2
aF0.2
aas(g161
g27
I1
tp509
(lp510
(lp511
g18
ag33
ag20
ag21
aa(lp512
F0.25
aF0.25
aF0.25
aF0.25
aas((F0.25
F1.25
g3
tp513
g194
I0
tp514
(lp515
(lp516
g16
ag33
ag21
ag18
ag20
aa(lp517
F0.2
aF0.2
aF0.2
aF0.2
aF0.2
aas(g96
g27
I1
tp518
(lp519
(lp520
g20
ag16
ag33
ag18
ag21
aa(lp521
F0.2
aF0.2
aF0.2
aF0.2
aF0.2
aas((F0.75
F0.75
g3
tp522
g27
I1
tp523
(lp524
(lp525
g16
ag33
ag21
ag18
ag20
aa(lp526
F0.2
aF0.2
aF0.2
aF0.2
aF0.2
aas((F1.25
F0.25
g23
tp527
g27
I0
tp528
(lp529
(lp530
g16
ag18
ag20
ag21
aa(lp531
F0.25
aF0.25
aF0.25
aF0.25
aas((F0.75
F1.75
g23
tp532
g27
I1
tp533
(lp534
(lp535
g18
ag21
ag20
ag33
aa(lp536
F0.25
aF0.25
aF0.25
aF0.25
aas((F1.75
F0.25
g95
tp537
g27
I1
tp538
(lp539
(lp540
g16
ag18
ag33
ag20
ag21
aa(lp541
F0.2
aF0.2
aF0.2
aF0.2
aF0.2
aas(g268
g194
I1
tp542
(lp543
(lp544
g16
ag18
ag33
ag20
ag21
aa(lp545
F0.2
aF0.2
aF0.2
aF0.2
aF0.2
aas((F0.25
F1.25
g95
tp546
g194
I0
tp547
(lp548
(lp549
g16
ag18
ag20
ag21
aa(lp550
F0.25
aF0.25
aF0.25
aF0.25
aas((F2.25
F0.75
g35
tp551
g27
I1
tp552
(lp553
(lp554
g16
ag18
ag20
ag21
aa(lp555
F0.25
aF0.25
aF0.25
aF0.25
aas((F0.75
F0.75
g95
tp556
g27
I0
tp557
(lp558
(lp559
g20
ag16
ag33
ag18
ag21
aa(lp560
F0.0
aF1.0
aF0.0
aF0.0
aF0.0
aas((F2.25
F0.25
g95
tp561
g50
I0
tp562
(lp563
(lp564
g18
ag33
ag20
ag21
aa(lp565
F0.0
aF0.0
aF1.0
aF0.0
aas((F1.25
F0.75
g3
tp566
g27
I0
tp567
(lp568
(lp569
g16
ag33
ag21
ag18
ag20
aa(lp570
F0.2
aF0.2
aF0.2
aF0.2
aF0.2
aas((F1.75
F0.25
g95
tp571
g27
I0
tp572
(lp573
(lp574
g16
ag18
ag33
ag20
ag21
aa(lp575
F1.0
aF0.0
aF0.0
aF0.0
aF0.0
aas((F0.75
F0.25
g95
tp576
g27
I0
tp577
(lp578
(lp579
g16
ag18
ag33
ag20
ag21
aa(lp580
F1.0
aF0.0
aF0.0
aF0.0
aF0.0
aas((F0.75
F0.25
g3
tp581
g27
I1
tp582
(lp583
(lp584
g20
ag33
ag18
ag21
aa(lp585
F0.25
aF0.25
aF0.25
aF0.25
aasaF22.217548427482
aF0.0
a(dp586
((F2.25
F0.75
g23
tp587
g27
I2
tp588
F0.0
s((F2.25
F1.25
g35
tp589
g10
I2
tp590
F0.005
s((F1.75
F0.75
g95
tp591
g27
I2
tp592
F0.0
s((F1.75
F0.75
g23
tp593
g27
I2
tp594
F0.0
s((F1.75
F0.75
g35
tp595
g27
I2
tp596
F0.0
s((F2.25
F1.25
g3
tp597
g10
I2
tp598
F0.023990004000900206
s(g214
g27
I2
tp599
F0.0
s((F2.25
F1.25
g95
tp600
g10
I2
tp601
F0.005
s((F2.25
F1.25
g23
tp602
g10
I2
tp603
F0.9660099959990998
s((F1.75
F0.75
g3
tp604
g27
I2
tp605
F0.0
saa(lp606
(dp607
((F0.25
F0.75
g35
tp608
g27
I4
tp609
(lp610
(lp611
g33
ag21
ag18
ag20
aa(lp612
F0.25
aF0.25
aF0.25
aF0.25
aas((F1.75
F0.75
g95
tp613
g27
I3
tp614
(lp615
(lp616
g20
ag16
ag33
ag18
ag21
aa(lp617
F0.0
aF1.0
aF0.0
aF0.0
aF0.0
aas((F1.25
F0.75
g23
tp618
g27
I3
tp619
(lp620
(lp621
g16
ag33
ag18
ag20
ag21
aa(lp622
F0.2
aF0.2
aF0.2
aF0.2
aF0.2
aas((F1.25
F0.25
g35
tp623
g27
I3
tp624
(lp625
(lp626
g16
ag33
ag21
ag18
ag20
aa(lp627
F0.2
aF0.2
aF0.2
aF0.2
aF0.2
aas((F2.25
F0.25
g23
tp628
g5
((lp629
g48
ag8
atp630
Rp631
I2
tp632
(lp633
(lp634
g16
ag18
ag20
ag21
aa(lp635
F0.25
aF0.25
aF0.25
aF0.25
aas(g199
g27
I3
tp636
(lp637
(lp638
g16
ag18
ag20
ag21
aa(lp639
F0.0
aF0.0
aF0.0
aF1.0
aas(g420
g27
I4
tp640
(lp641
(lp642
g16
ag33
ag18
ag20
ag21
aa(lp643
F0.2
aF0.2
aF0.2
aF0.2
aF0.2
aas((F0.25
F0.75
g95
tp644
g27
I3
tp645
(lp646
(lp647
g16
ag18
ag20
ag21
aa(lp648
F0.25
aF0.25
aF0.25
aF0.25
aas((F0.75
F0.75
g35
tp649
g27
I4
tp650
(lp651
(lp652
g16
ag18
ag33
ag20
ag21
aa(lp653
F0.2
aF0.2
aF0.2
aF0.2
aF0.2
aas((F0.75
F1.25
g95
tp654
g27
I4
tp655
(lp656
(lp657
g16
ag18
ag33
ag20
ag21
aa(lp658
F0.2
aF0.2
aF0.2
aF0.2
aF0.2
aas(g499
g5
((lp659
g192
ag8
atp660
Rp661
I2
tp662
(lp663
(lp664
g33
ag21
ag18
ag20
aa(lp665
F0.0
aF0.0
aF0.0
aF1.0
aas((F1.75
F0.75
g23
tp666
g27
I2
tp667
(lp668
(lp669
g16
ag33
ag18
ag20
ag21
aa(lp670
F0.2
aF0.2
aF0.2
aF0.2
aF0.2
aas((F0.75
F0.25
g95
tp671
g27
I4
tp672
(lp673
(lp674
g16
ag18
ag33
ag20
ag21
aa(lp675
F0.2
aF0.2
aF0.2
aF0.2
aF0.2
aas((F0.75
F1.25
g23
tp676
g27
I4
tp677
(lp678
(lp679
g16
ag33
ag18
ag20
ag21
aa(lp680
F0.2
aF0.2
aF0.2
aF0.2
aF0.2
aas((F0.75
F1.75
g35
tp681
g27
I4
tp682
(lp683
(lp684
g16
ag18
ag20
ag21
aa(lp685
F0.25
aF0.25
aF0.25
aF0.25
aas((F0.75
F0.25
g3
tp686
g27
I2
tp687
(lp688
(lp689
g20
ag33
ag18
ag21
aa(lp690
F0.0
aF1.0
aF0.0
aF0.0
aas((F2.25
F0.75
g23
tp691
g27
I2
tp692
(lp693
(lp694
g16
ag33
ag18
ag20
ag21
aa(lp695
F0.2
aF0.2
aF0.2
aF0.2
aF0.2
aas(g372
g27
I3
tp696
(lp697
(lp698
g16
ag18
ag20
ag21
aa(lp699
F1.0
aF0.0
aF0.0
aF0.0
aas(g253
g27
I2
tp700
(lp701
(lp702
g18
ag33
ag20
ag21
aa(lp703
F0.25
aF0.25
aF0.25
aF0.25
aas((F0.75
F0.75
g95
tp704
g27
I3
tp705
(lp706
(lp707
g20
ag16
ag33
ag18
ag21
aa(lp708
F0.0
aF1.0
aF0.0
aF0.0
aF0.0
aas(g283
g27
I3
tp709
(lp710
(lp711
g16
ag18
ag33
ag20
ag21
aa(lp712
F0.2
aF0.2
aF0.2
aF0.2
aF0.2
aas(g415
g27
I2
tp713
(lp714
(lp715
g18
ag21
ag20
ag33
aa(lp716
F0.0
aF0.0
aF1.0
aF0.0
aas((F2.25
F0.25
g3
tp717
g631
I4
tp718
(lp719
(lp720
g20
ag33
ag18
ag21
aa(lp721
F0.25
aF0.25
aF0.25
aF0.25
aas(g332
g27
I2
tp722
(lp723
(lp724
g20
ag16
ag33
ag18
ag21
aa(lp725
F0.0
aF0.0
aF0.0
aF0.0
aF1.0
aas(g214
g27
I2
tp726
(lp727
(lp728
g16
ag33
ag21
ag18
ag20
aa(lp729
F1.0
aF0.0
aF0.0
aF0.0
aF0.0
aas((F1.25
F0.25
g95
tp730
g27
I4
tp731
(lp732
(lp733
g20
ag16
ag33
ag18
ag21
aa(lp734
F0.2
aF0.2
aF0.2
aF0.2
aF0.2
aas((F0.75
F0.25
g23
tp735
g27
I2
tp736
(lp737
(lp738
g16
ag18
ag20
ag21
aa(lp739
F1.0
aF0.0
aF0.0
aF0.0
aas((F1.25
F0.25
g35
tp740
g27
I4
tp741
(lp742
(lp743
g16
ag33
ag21
ag18
ag20
aa(lp744
F0.2
aF0.2
aF0.2
aF0.2
aF0.2
aas((F2.25
F0.25
g3
tp745
g631
I2
tp746
(lp747
(lp748
g20
ag33
ag18
ag21
aa(lp749
F0.0
aF0.0
aF0.0
aF1.0
aas((F0.25
F0.25
g3
tp750
g27
I4
tp751
(lp752
(lp753
g18
ag21
ag20
ag33
aa(lp754
F0.25
aF0.25
aF0.25
aF0.25
aas(g654
g27
I3
tp755
(lp756
(lp757
g16
ag18
ag33
ag20
ag21
aa(lp758
F0.2
aF0.2
aF0.2
aF0.2
aF0.2
aas(g591
g27
I6
tp759
(lp760
(lp761
g20
ag16
ag33
ag18
ag21
aa(lp762
F0.2
aF0.2
aF0.2
aF0.2
aF0.2
aas((F0.25
F0.25
g23
tp763
g27
I2
tp764
(lp765
(lp766
g16
ag18
ag20
ag21
aa(lp767
F0.0
aF0.0
aF0.0
aF1.0
aas((F1.75
F0.25
g23
tp768
g27
I3
tp769
(lp770
(lp771
g16
ag18
ag20
ag21
aa(lp772
F0.0
aF0.0
aF0.0
aF1.0
aas((F1.75
F0.75
g3
tp773
g27
I4
tp774
(lp775
(lp776
g16
ag33
ag21
ag18
ag20
aa(lp777
F0.2
aF0.2
aF0.2
aF0.2
aF0.2
aas(g595
g27
I3
tp778
(lp779
(lp780
g16
ag33
ag21
ag18
ag20
aa(lp781
F0.2
aF0.2
aF0.2
aF0.2
aF0.2
aas(g430
g27
I2
tp782
(lp783
(lp784
g20
ag16
ag33
ag18
ag21
aa(lp785
F0.2
aF0.2
aF0.2
aF0.2
aF0.2
aas((F1.75
F0.25
g35
tp786
g27
I3
tp787
(lp788
(lp789
g16
ag18
ag33
ag20
ag21
aa(lp790
F0.2
aF0.2
aF0.2
aF0.2
aF0.2
aas((F0.25
F0.75
g23
tp791
g27
I4
tp792
(lp793
(lp794
g16
ag33
ag18
ag20
ag21
aa(lp795
F0.2
aF0.2
aF0.2
aF0.2
aF0.2
aas(g146
g5
((lp796
g7
ag8
atp797
Rp798
I3
tp799
(lp800
(lp801
g33
ag21
ag18
ag20
aa(lp802
F0.25
aF0.25
aF0.25
aF0.25
aas(g337
g27
I2
tp803
(lp804
(lp805
g16
ag18
ag33
ag20
ag21
aa(lp806
F0.0
aF0.0
aF0.0
aF1.0
aF0.0
aas(g415
g27
I3
tp807
(lp808
(lp809
g18
ag21
ag20
ag33
aa(lp810
F0.0
aF0.0
aF1.0
aF0.0
aas(g41
g27
I4
tp811
(lp812
(lp813
g16
ag18
ag20
ag21
aa(lp814
F0.25
aF0.25
aF0.25
aF0.25
aas((F2.25
F0.25
g35
tp815
g631
I2
tp816
(lp817
(lp818
g16
ag18
ag20
ag21
aa(lp819
F1.0
aF0.0
aF0.0
aF0.0
aas(g587
g27
I6
tp820
(lp821
(lp822
g16
ag33
ag18
ag20
ag21
aa(lp823
F0.2
aF0.2
aF0.2
aF0.2
aF0.2
aas((F1.75
F0.25
g35
tp824
g27
I4
tp825
(lp826
(lp827
g16
ag18
ag33
ag20
ag21
aa(lp828
F0.2
aF0.2
aF0.2
aF0.2
aF0.2
aas(g156
g27
I3
tp829
(lp830
(lp831
g16
ag33
ag18
ag20
ag21
aa(lp832
F0.2
aF0.2
aF0.2
aF0.2
aF0.2
aas(g166
g798
I3
tp833
(lp834
(lp835
g18
ag21
ag20
ag33
aa(lp836
F0.0
aF1.0
aF0.0
aF0.0
aas(g589
g798
I3
tp837
(lp838
(lp839
g16
ag18
ag20
ag21
aa(lp840
F0.25
aF0.25
aF0.25
aF0.25
aas(g420
g27
I2
tp841
(lp842
(lp843
g16
ag33
ag18
ag20
ag21
aa(lp844
F0.0
aF0.0
aF0.0
aF0.0
aF1.0
aas((F1.25
F0.75
g23
tp845
g27
I2
tp846
(lp847
(lp848
g16
ag33
ag18
ag20
ag21
aa(lp849
F0.0
aF1.0
aF0.0
aF0.0
aF0.0
aas((F0.75
F0.25
g35
tp850
g27
I2
tp851
(lp852
(lp853
g16
ag18
ag21
ag20
ag33
aa(lp854
F0.0
aF0.0
aF1.0
aF0.0
aF0.0
aas((F1.75
F0.25
g23
tp855
g27
I2
tp856
(lp857
(lp858
g16
ag18
ag20
ag21
aa(lp859
F0.0
aF0.0
aF1.0
aF0.0
aas((F0.25
F0.25
g35
tp860
g27
I4
tp861
(lp862
(lp863
g33
ag21
ag18
ag20
aa(lp864
F0.25
aF0.25
aF0.25
aF0.25
aas(g337
g27
I3
tp865
(lp866
(lp867
g16
ag18
ag33
ag20
ag21
aa(lp868
F0.2
aF0.2
aF0.2
aF0.2
aF0.2
aas((F2.25
F0.25
g35
tp869
g631
I4
tp870
(lp871
(lp872
g16
ag18
ag20
ag21
aa(lp873
F0.0
aF0.0
aF0.0
aF1.0
aas((F1.25
F0.25
g3
tp874
g27
I2
tp875
(lp876
(lp877
g20
ag33
ag18
ag21
aa(lp878
F0.0
aF0.0
aF0.0
aF1.0
aas((F1.25
F0.75
g35
tp879
g27
I4
tp880
(lp881
(lp882
g16
ag18
ag33
ag20
ag21
aa(lp883
F0.2
aF0.2
aF0.2
aF0.2
aF0.2
aas((F1.25
F0.75
g3
tp884
g27
I4
tp885
(lp886
(lp887
g16
ag33
ag21
ag18
ag20
aa(lp888
F0.2
aF0.2
aF0.2
aF0.2
aF0.2
aas((F0.25
F1.25
g23
tp889
g661
I4
tp890
(lp891
(lp892
g16
ag18
ag33
ag20
ag21
aa(lp893
F0.2
aF0.2
aF0.2
aF0.2
aF0.2
aas(g396
g27
I2
tp894
(lp895
(lp896
g16
ag18
ag33
ag20
ag21
aa(lp897
F0.2
aF0.2
aF0.2
aF0.2
aF0.2
aas((F1.25
F0.25
g3
tp898
g27
I4
tp899
(lp900
(lp901
g20
ag33
ag18
ag21
aa(lp902
F0.25
aF0.25
aF0.25
aF0.25
aas((F0.25
F1.25
g23
tp903
g661
I2
tp904
(lp905
(lp906
g16
ag18
ag33
ag20
ag21
aa(lp907
F0.2
aF0.2
aF0.2
aF0.2
aF0.2
aas(g214
g27
I6
tp908
(lp909
(lp910
g16
ag33
ag21
ag18
ag20
aa(lp911
F0.2
aF0.2
aF0.2
aF0.2
aF0.2
aas((F0.25
F1.25
g95
tp912
g661
I3
tp913
(lp914
(lp915
g16
ag18
ag20
ag21
aa(lp916
F0.0
aF0.0
aF0.0
aF1.0
aas((F0.25
F0.25
g95
tp917
g27
I4
tp918
(lp919
(lp920
g16
ag18
ag20
ag21
aa(lp921
F0.25
aF0.25
aF0.25
aF0.25
aas(g435
g27
I3
tp922
(lp923
(lp924
g20
ag33
ag18
ag21
aa(lp925
F1.0
aF0.0
aF0.0
aF0.0
aas(g342
g27
I3
tp926
(lp927
(lp928
g16
ag18
ag20
ag21
aa(lp929
F0.25
aF0.25
aF0.25
aF0.25
aas(g253
g27
I3
tp930
(lp931
(lp932
g18
ag33
ag20
ag21
aa(lp933
F0.0
aF0.0
aF1.0
aF0.0
aas((F1.25
F0.25
g23
tp934
g27
I4
tp935
(lp936
(lp937
g16
ag18
ag20
ag21
aa(lp938
F0.25
aF0.25
aF0.25
aF0.25
aas((F0.75
F0.75
g3
tp939
g27
I4
tp940
(lp941
(lp942
g16
ag33
ag21
ag18
ag20
aa(lp943
F0.2
aF0.2
aF0.2
aF0.2
aF0.2
aas((F1.25
F0.75
g95
tp944
g27
I3
tp945
(lp946
(lp947
g20
ag16
ag33
ag18
ag21
aa(lp948
F0.0
aF1.0
aF0.0
aF0.0
aF0.0
aas(g644
g27
I4
tp949
(lp950
(lp951
g16
ag18
ag20
ag21
aa(lp952
F0.25
aF0.25
aF0.25
aF0.25
aas(g546
g661
I2
tp953
(lp954
(lp955
g16
ag18
ag20
ag21
aa(lp956
F0.0
aF0.0
aF0.0
aF1.0
aas((F1.25
F0.75
g23
tp957
g27
I4
tp958
(lp959
(lp960
g16
ag33
ag18
ag20
ag21
aa(lp961
F0.2
aF0.2
aF0.2
aF0.2
aF0.2
aas(g763
g27
I3
tp962
(lp963
(lp964
g16
ag18
ag20
ag21
aa(lp965
F0.0
aF0.0
aF0.0
aF1.0
aas(g773
g27
I3
tp966
(lp967
(lp968
g16
ag33
ag21
ag18
ag20
aa(lp969
F0.2
aF0.2
aF0.2
aF0.2
aF0.2
aas(g273
g27
I4
tp970
(lp971
(lp972
g16
ag18
ag20
ag21
aa(lp973
F0.25
aF0.25
aF0.25
aF0.25
aas((F2.25
F1.25
g3
tp974
g798
I2
tp975
(lp976
(lp977
g16
ag18
ag20
ag21
aa(lp978
F1.0
aF0.0
aF0.0
aF0.0
aas(g595
g27
I6
tp979
(lp980
(lp981
g16
ag33
ag21
ag18
ag20
aa(lp982
F0.2
aF0.2
aF0.2
aF0.2
aF0.2
aas((F0.75
F1.75
g95
tp983
g27
I4
tp984
(lp985
(lp986
g18
ag33
ag20
ag21
aa(lp987
F0.25
aF0.25
aF0.25
aF0.25
aas(g561
g631
I3
tp988
(lp989
(lp990
g18
ag33
ag20
ag21
aa(lp991
F0.0
aF0.0
aF1.0
aF0.0
aas(g604
g27
I6
tp992
(lp993
(lp994
g16
ag33
ag21
ag18
ag20
aa(lp995
F0.2
aF0.2
aF0.2
aF0.2
aF0.2
aas((F1.75
F0.25
g3
tp996
g27
I2
tp997
(lp998
(lp999
g20
ag33
ag18
ag21
aa(lp1000
F0.0
aF0.0
aF0.0
aF1.0
aas((F1.75
F0.75
g35
tp1001
g27
I4
tp1002
(lp1003
(lp1004
g16
ag33
ag21
ag18
ag20
aa(lp1005
F0.2
aF0.2
aF0.2
aF0.2
aF0.2
aas(g944
g27
I4
tp1006
(lp1007
(lp1008
g20
ag16
ag33
ag18
ag21
aa(lp1009
F0.2
aF0.2
aF0.2
aF0.2
aF0.2
aas((F1.75
F0.75
g95
tp1010
g27
I4
tp1011
(lp1012
(lp1013
g20
ag16
ag33
ag18
ag21
aa(lp1014
F0.2
aF0.2
aF0.2
aF0.2
aF0.2
aas((F2.25
F0.25
g23
tp1015
g631
I3
tp1016
(lp1017
(lp1018
g16
ag18
ag20
ag21
aa(lp1019
F1.0
aF0.0
aF0.0
aF0.0
aas((F2.25
F1.25
g3
tp1020
g798
I6
tp1021
(lp1022
(lp1023
g16
ag18
ag20
ag21
aa(lp1024
F0.25
aF0.25
aF0.25
aF0.25
aas((F0.75
F1.25
g35
tp1025
g27
I2
tp1026
(lp1027
(lp1028
g16
ag18
ag33
ag20
ag21
aa(lp1029
F0.2
aF0.2
aF0.2
aF0.2
aF0.2
aas((F0.75
F1.25
g3
tp1030
g27
I2
tp1031
(lp1032
(lp1033
g16
ag18
ag21
ag20
ag33
aa(lp1034
F0.2
aF0.2
aF0.2
aF0.2
aF0.2
aas((F0.75
F0.25
g95
tp1035
g27
I2
tp1036
(lp1037
(lp1038
g16
ag18
ag33
ag20
ag21
aa(lp1039
F0.0
aF0.0
aF0.0
aF1.0
aF0.0
aas(g571
g27
I4
tp1040
(lp1041
(lp1042
g16
ag18
ag33
ag20
ag21
aa(lp1043
F0.2
aF0.2
aF0.2
aF0.2
aF0.2
aas((F0.75
F1.75
g23
tp1044
g27
I2
tp1045
(lp1046
(lp1047
g18
ag21
ag20
ag33
aa(lp1048
F0.25
aF0.25
aF0.25
aF0.25
aas(g4
g798
I4
tp1049
(lp1050
(lp1051
g16
ag18
ag20
ag21
aa(lp1052
F0.0
aF1.0
aF0.0
aF0.0
aas((F0.75
F0.75
g3
tp1053
g27
I2
tp1054
(lp1055
(lp1056
g16
ag33
ag21
ag18
ag20
aa(lp1057
F0.0
aF0.0
aF0.0
aF0.0
aF1.0
aas(g60
g27
I2
tp1058
(lp1059
(lp1060
g16
ag18
ag20
ag21
aa(lp1061
F0.0
aF0.0
aF1.0
aF0.0
aas(g24
g27
I2
tp1062
(lp1063
(lp1064
g16
ag33
ag18
ag20
ag21
aa(lp1065
F0.2
aF0.2
aF0.2
aF0.2
aF0.2
aas((F1.25
F0.25
g23
tp1066
g27
I3
tp1067
(lp1068
(lp1069
g16
ag18
ag20
ag21
aa(lp1070
F0.25
aF0.25
aF0.25
aF0.25
aas((F0.25
F0.75
g3
tp1071
g27
I4
tp1072
(lp1073
(lp1074
g20
ag16
ag33
ag18
ag21
aa(lp1075
F0.2
aF0.2
aF0.2
aF0.2
aF0.2
aas((F0.75
F0.25
g35
tp1076
g27
I3
tp1077
(lp1078
(lp1079
g16
ag18
ag21
ag20
ag33
aa(lp1080
F0.2
aF0.2
aF0.2
aF0.2
aF0.2
aas((F0.25
F1.25
g3
tp1081
g661
I3
tp1082
(lp1083
(lp1084
g16
ag33
ag21
ag18
ag20
aa(lp1085
F1.0
aF0.0
aF0.0
aF0.0
aF0.0
aas(g499
g661
I4
tp1086
(lp1087
(lp1088
g33
ag21
ag18
ag20
aa(lp1089
F0.25
aF0.25
aF0.25
aF0.25
aas(g593
g27
I6
tp1090
(lp1091
(lp1092
g16
ag33
ag18
ag20
ag21
aa(lp1093
F0.2
aF0.2
aF0.2
aF0.2
aF0.2
aas(g860
g27
I2
tp1094
(lp1095
(lp1096
g33
ag21
ag18
ag20
aa(lp1097
F1.0
aF0.0
aF0.0
aF0.0
aas(g258
g27
I4
tp1098
(lp1099
(lp1100
g20
ag33
ag18
ag21
aa(lp1101
F0.25
aF0.25
aF0.25
aF0.25
aas(g551
g27
I2
tp1102
(lp1103
(lp1104
g16
ag18
ag20
ag21
aa(lp1105
F0.25
aF0.25
aF0.25
aF0.25
aas((F0.25
F0.75
g23
tp1106
g27
I3
tp1107
(lp1108
(lp1109
g16
ag33
ag18
ag20
ag21
aa(lp1110
F0.2
aF0.2
aF0.2
aF0.2
aF0.2
aas(g146
g798
I4
tp1111
(lp1112
(lp1113
g33
ag21
ag18
ag20
aa(lp1114
F0.0
aF0.0
aF1.0
aF0.0
aas(g532
g27
I4
tp1115
(lp1116
(lp1117
g18
ag21
ag20
ag33
aa(lp1118
F0.25
aF0.25
aF0.25
aF0.25
aas(g357
g27
I3
tp1119
(lp1120
(lp1121
g16
ag18
ag33
ag20
ag21
aa(lp1122
F1.0
aF0.0
aF0.0
aF0.0
aF0.0
aas((F0.75
F1.25
g3
tp1123
g27
I4
tp1124
(lp1125
(lp1126
g16
ag18
ag21
ag20
ag33
aa(lp1127
F0.2
aF0.2
aF0.2
aF0.2
aF0.2
aas((F0.75
F0.75
g95
tp1128
g27
I4
tp1129
(lp1130
(lp1131
g20
ag16
ag33
ag18
ag21
aa(lp1132
F0.2
aF0.2
aF0.2
aF0.2
aF0.2
aas(g602
g798
I6
tp1133
(lp1134
(lp1135
g33
ag21
ag18
ag20
aa(lp1136
F0.25
aF0.25
aF0.25
aF0.25
aas(g681
g27
I2
tp1137
(lp1138
(lp1139
g16
ag18
ag20
ag21
aa(lp1140
F0.25
aF0.25
aF0.25
aF0.25
aas(g101
g27
I3
tp1141
(lp1142
(lp1143
g18
ag21
ag20
ag33
aa(lp1144
F0.25
aF0.25
aF0.25
aF0.25
aas(g70
g27
I2
tp1145
(lp1146
(lp1147
g16
ag33
ag21
ag18
ag20
aa(lp1148
F1.0
aF0.0
aF0.0
aF0.0
aF0.0
aas(g745
g631
I3
tp1149
(lp1150
(lp1151
g20
ag33
ag18
ag21
aa(lp1152
F0.0
aF1.0
aF0.0
aF0.0
aas((F0.25
F0.25
g23
tp1153
g27
I4
tp1154
(lp1155
(lp1156
g16
ag18
ag20
ag21
aa(lp1157
F0.25
aF0.25
aF0.25
aF0.25
aas(g166
g798
I4
tp1158
(lp1159
(lp1160
g18
ag21
ag20
ag33
aa(lp1161
F0.25
aF0.25
aF0.25
aF0.25
aas((F2.25
F1.25
g23
tp1162
g798
I2
tp1163
(lp1164
(lp1165
g33
ag21
ag18
ag20
aa(lp1166
F0.0
aF0.0
aF0.0
aF1.0
aas((F0.75
F1.75
g95
tp1167
g27
I3
tp1168
(lp1169
(lp1170
g18
ag33
ag20
ag21
aa(lp1171
F0.25
aF0.25
aF0.25
aF0.25
aas((F2.25
F1.25
g95
tp1172
g798
I6
tp1173
(lp1174
(lp1175
g18
ag21
ag20
ag33
aa(lp1176
F0.25
aF0.25
aF0.25
aF0.25
aas((F2.25
F1.25
g35
tp1177
g798
I6
tp1178
(lp1179
(lp1180
g16
ag18
ag20
ag21
aa(lp1181
F0.25
aF0.25
aF0.25
aF0.25
aas(g386
g27
I4
tp1182
(lp1183
(lp1184
g16
ag18
ag20
ag21
aa(lp1185
F0.25
aF0.25
aF0.25
aF0.25
aas(g116
g27
I4
tp1186
(lp1187
(lp1188
g16
ag18
ag21
ag20
ag33
aa(lp1189
F0.2
aF0.2
aF0.2
aF0.2
aF0.2
aas((F1.75
F0.75
g23
tp1190
g27
I3
tp1191
(lp1192
(lp1193
g16
ag33
ag18
ag20
ag21
aa(lp1194
F0.2
aF0.2
aF0.2
aF0.2
aF0.2
aas(g209
g27
I2
tp1195
(lp1196
(lp1197
g16
ag18
ag20
ag21
aa(lp1198
F0.25
aF0.25
aF0.25
aF0.25
aas(g273
g27
I3
tp1199
(lp1200
(lp1201
g16
ag18
ag20
ag21
aa(lp1202
F0.25
aF0.25
aF0.25
aF0.25
aas(g36
g798
I4
tp1203
(lp1204
(lp1205
g16
ag18
ag20
ag21
aa(lp1206
F0.25
aF0.25
aF0.25
aF0.25
aas((F2.25
F0.75
g95
tp1207
g27
I4
tp1208
(lp1209
(lp1210
g18
ag33
ag20
ag21
aa(lp1211
F0.25
aF0.25
aF0.25
aF0.25
aas(g176
g631
I3
tp1212
(lp1213
(lp1214
g16
ag18
ag20
ag21
aa(lp1215
F0.25
aF0.25
aF0.25
aF0.25
aas((F1.25
F0.25
g35
tp1216
g27
I2
tp1217
(lp1218
(lp1219
g16
ag33
ag21
ag18
ag20
aa(lp1220
F1.0
aF0.0
aF0.0
aF0.0
aF0.0
aas(g293
g27
I3
tp1221
(lp1222
(lp1223
g20
ag16
ag33
ag18
ag21
aa(lp1224
F0.0
aF1.0
aF0.0
aF0.0
aF0.0
aas(g773
g27
I2
tp1225
(lp1226
(lp1227
g16
ag33
ag21
ag18
ag20
aa(lp1228
F1.0
aF0.0
aF0.0
aF0.0
aF0.0
aas(g151
g27
I2
tp1229
(lp1230
(lp1231
g16
ag18
ag20
ag21
aa(lp1232
F0.0
aF0.0
aF0.0
aF1.0
aas(g566
g27
I3
tp1233
(lp1234
(lp1235
g16
ag33
ag21
ag18
ag20
aa(lp1236
F0.2
aF0.2
aF0.2
aF0.2
aF0.2
aas(g587
g27
I3
tp1237
(lp1238
(lp1239
g16
ag33
ag18
ag20
ag21
aa(lp1240
F0.0
aF1.0
aF0.0
aF0.0
aF0.0
aas(g420
g27
I3
tp1241
(lp1242
(lp1243
g16
ag33
ag18
ag20
ag21
aa(lp1244
F0.2
aF0.2
aF0.2
aF0.2
aF0.2
aas((F2.25
F1.25
g95
tp1245
g798
I2
tp1246
(lp1247
(lp1248
g18
ag21
ag20
ag33
aa(lp1249
F0.25
aF0.25
aF0.25
aF0.25
aas(g372
g27
I2
tp1250
(lp1251
(lp1252
g16
ag18
ag20
ag21
aa(lp1253
F1.0
aF0.0
aF0.0
aF0.0
aas((F1.75
F0.25
g95
tp1254
g27
I3
tp1255
(lp1256
(lp1257
g16
ag18
ag33
ag20
ag21
aa(lp1258
F1.0
aF0.0
aF0.0
aF0.0
aF0.0
aas(g136
g27
I4
tp1259
(lp1260
(lp1261
g16
ag33
ag18
ag20
ag21
aa(lp1262
F1.0
aF0.0
aF0.0
aF0.0
aF0.0
aas((F0.75
F1.25
g35
tp1263
g27
I4
tp1264
(lp1265
(lp1266
g16
ag18
ag33
ag20
ag21
aa(lp1267
F0.2
aF0.2
aF0.2
aF0.2
aF0.2
aas(g589
g798
I2
tp1268
(lp1269
(lp1270
g16
ag18
ag20
ag21
aa(lp1271
F1.0
aF0.0
aF0.0
aF0.0
aas(g435
g27
I4
tp1272
(lp1273
(lp1274
g20
ag33
ag18
ag21
aa(lp1275
F0.25
aF0.25
aF0.25
aF0.25
aas((F0.25
F0.75
g35
tp1276
g27
I3
tp1277
(lp1278
(lp1279
g33
ag21
ag18
ag20
aa(lp1280
F0.25
aF0.25
aF0.25
aF0.25
aas(g248
g27
I3
tp1281
(lp1282
(lp1283
g16
ag18
ag33
ag20
ag21
aa(lp1284
F0.2
aF0.2
aF0.2
aF0.2
aF0.2
aas(g591
g27
I2
tp1285
(lp1286
(lp1287
g20
ag16
ag33
ag18
ag21
aa(lp1288
F0.2
aF0.2
aF0.2
aF0.2
aF0.2
aas(g499
g661
I3
tp1289
(lp1290
(lp1291
g33
ag21
ag18
ag20
aa(lp1292
F0.0
aF0.0
aF0.0
aF1.0
aas((F0.75
F0.75
g3
tp1293
g27
I3
tp1294
(lp1295
(lp1296
g16
ag33
ag21
ag18
ag20
aa(lp1297
F1.0
aF0.0
aF0.0
aF0.0
aF0.0
aas(g1030
g27
I3
tp1298
(lp1299
(lp1300
g16
ag18
ag21
ag20
ag33
aa(lp1301
F0.2
aF0.2
aF0.2
aF0.2
aF0.2
aas(g666
g27
I4
tp1302
(lp1303
(lp1304
g16
ag33
ag18
ag20
ag21
aa(lp1305
F1.0
aF0.0
aF0.0
aF0.0
aF0.0
aas((F0.75
F0.75
g35
tp1306
g27
I2
tp1307
(lp1308
(lp1309
g16
ag18
ag33
ag20
ag21
aa(lp1310
F1.0
aF0.0
aF0.0
aF0.0
aF0.0
aas((F0.25
F0.75
g3
tp1311
g27
I2
tp1312
(lp1313
(lp1314
g20
ag16
ag33
ag18
ag21
aa(lp1315
F0.0
aF1.0
aF0.0
aF0.0
aF0.0
aas(g996
g27
I3
tp1316
(lp1317
(lp1318
g20
ag33
ag18
ag21
aa(lp1319
F1.0
aF0.0
aF0.0
aF0.0
aas(g889
g661
I3
tp1320
(lp1321
(lp1322
g16
ag18
ag33
ag20
ag21
aa(lp1323
F0.2
aF0.2
aF0.2
aF0.2
aF0.2
aas((F0.75
F0.25
g23
tp1324
g27
I3
tp1325
(lp1326
(lp1327
g16
ag18
ag20
ag21
aa(lp1328
F0.0
aF0.0
aF0.0
aF1.0
aas(g561
g631
I4
tp1329
(lp1330
(lp1331
g18
ag33
ag20
ag21
aa(lp1332
F0.0
aF0.0
aF1.0
aF0.0
aas(g308
g27
I3
tp1333
(lp1334
(lp1335
g33
ag21
ag18
ag20
aa(lp1336
F0.25
aF0.25
aF0.25
aF0.25
aas(g243
g661
I2
tp1337
(lp1338
(lp1339
g16
ag33
ag21
ag18
ag20
aa(lp1340
F0.2
aF0.2
aF0.2
aF0.2
aF0.2
aas(g161
g27
I2
tp1341
(lp1342
(lp1343
g18
ag33
ag20
ag21
aa(lp1344
F0.25
aF0.25
aF0.25
aF0.25
aas((F0.25
F0.75
g23
tp1345
g27
I2
tp1346
(lp1347
(lp1348
g16
ag33
ag18
ag20
ag21
aa(lp1349
F0.0
aF1.0
aF0.0
aF0.0
aF0.0
aas(g1276
g27
I2
tp1350
(lp1351
(lp1352
g33
ag21
ag18
ag20
aa(lp1353
F0.0
aF0.0
aF0.0
aF1.0
aas((F1.75
F0.75
g35
tp1354
g27
I2
tp1355
(lp1356
(lp1357
g16
ag33
ag21
ag18
ag20
aa(lp1358
F1.0
aF0.0
aF0.0
aF0.0
aF0.0
aas((F0.25
F1.25
g3
tp1359
g661
I4
tp1360
(lp1361
(lp1362
g16
ag33
ag21
ag18
ag20
aa(lp1363
F0.2
aF0.2
aF0.2
aF0.2
aF0.2
aas(g546
g661
I4
tp1364
(lp1365
(lp1366
g16
ag18
ag20
ag21
aa(lp1367
F0.25
aF0.25
aF0.25
aF0.25
aas(g504
g27
I2
tp1368
(lp1369
(lp1370
g16
ag18
ag33
ag20
ag21
aa(lp1371
F1.0
aF0.0
aF0.0
aF0.0
aF0.0
aas((F1.25
F0.25
g3
tp1372
g27
I3
tp1373
(lp1374
(lp1375
g20
ag33
ag18
ag21
aa(lp1376
F1.0
aF0.0
aF0.0
aF0.0
aas(g551
g27
I4
tp1377
(lp1378
(lp1379
g16
ag18
ag20
ag21
aa(lp1380
F0.25
aF0.25
aF0.25
aF0.25
aas(g628
g631
I4
tp1381
(lp1382
(lp1383
g16
ag18
ag20
ag21
aa(lp1384
F1.0
aF0.0
aF0.0
aF0.0
aas(g1020
g798
I3
tp1385
(lp1386
(lp1387
g16
ag18
ag20
ag21
aa(lp1388
F1.0
aF0.0
aF0.0
aF0.0
aas((F2.25
F0.75
g3
tp1389
g27
I4
tp1390
(lp1391
(lp1392
g16
ag33
ag21
ag18
ag20
aa(lp1393
F0.0
aF1.0
aF0.0
aF0.0
aF0.0
aas(g494
g27
I2
tp1394
(lp1395
(lp1396
g20
ag16
ag33
ag18
ag21
aa(lp1397
F0.0
aF0.0
aF1.0
aF0.0
aF0.0
aas(g1254
g27
I2
tp1398
(lp1399
(lp1400
g16
ag18
ag33
ag20
ag21
aa(lp1401
F0.2
aF0.2
aF0.2
aF0.2
aF0.2
aas((F2.25
F0.25
g95
tp1402
g631
I2
tp1403
(lp1404
(lp1405
g18
ag33
ag20
ag21
aa(lp1406
F0.25
aF0.25
aF0.25
aF0.25
aas(g352
g27
I3
tp1407
(lp1408
(lp1409
g16
ag33
ag21
ag18
ag20
aa(lp1410
F1.0
aF0.0
aF0.0
aF0.0
aF0.0
aas(g430
g27
I3
tp1411
(lp1412
(lp1413
g20
ag16
ag33
ag18
ag21
aa(lp1414
F0.0
aF1.0
aF0.0
aF0.0
aF0.0
aasaF188.55788291676984
aF0.0
aa(lp1415
g5
((lp1416
g609
ag614
ag1191
ag636
ag778
ag632
ag624
ag640
ag861
ag645
ag825
ag655
ag662
ag846
ag672
ag722
ag1115
ag682
ag687
ag692
ag696
ag1341
ag1119
ag1054
ag718
ag1285
ag726
ag1040
ag736
ag741
ag746
ag751
ag755
ag759
ag764
ag1067
ag1259
ag885
ag865
ag709
ag792
ag799
ag803
ag807
ag935
ag816
ag820
ag829
ag833
ag837
ag841
ag667
ag650
ag856
ag880
ag787
ag870
ag875
ag1002
ag774
ag890
ag1302
ag899
ag904
ag908
ag913
ag918
ag922
ag926
ag930
ag811
ag940
ag945
ag949
ag953
ag1154
ag962
ag966
ag970
ag975
ag979
ag984
ag988
ag992
ag997
ag1264
ag1026
ag1006
ag1011
ag1016
ag1021
ag851
ag1031
ag1036
ag731
ag1045
ag1049
ag1058
ag1062
ag769
ag1072
ag1077
ag1082
ag1086
ag1090
ag1094
ag1098
ag1102
ag1107
ag1111
ag782
ag705
ag1124
ag1129
ag1133
ag1137
ag1141
ag1149
ag677
ag1158
ag1163
ag1168
ag1173
ag1178
ag1182
ag1186
ag619
ag1195
ag1199
ag1203
ag1208
ag1212
ag1217
ag1221
ag1145
ag1229
ag1233
ag1237
ag1241
ag1246
ag1250
ag1255
ag713
ag1346
ag1268
ag1272
ag1277
ag1281
ag894
ag1289
ag1294
ag1298
ag958
ag1307
ag1312
ag1373
ag1320
ag1325
ag1329
ag1333
ag1337
ag1225
ag700
ag1350
ag1355
ag1360
ag1364
ag1368
ag1316
ag1377
ag1381
ag1385
ag1390
ag1394
ag1398
ag1403
ag1407
ag1411
atp1417
Rp1418
ac__builtin__
set
p1419
((lp1420
(g602
g10
I6
tp1421
a(g36
g10
I6
tp1422
a(g666
g27
I6
tp1423
a((F1.75
F0.75
g3
tp1424
g27
I6
tp1425
a((F2.25
F0.75
g23
tp1426
g27
I6
tp1427
a((F1.75
F0.75
g95
tp1428
g27
I6
tp1429
a(g4
g10
I6
tp1430
a((F2.25
F0.75
g3
tp1431
g27
I6
tp1432
a((F1.75
F0.75
g35
tp1433
g27
I6
tp1434
a(g600
g10
I6
tp1435
atp1436
Rp1437
ag1419
((lp1438
g11
ag28
ag42
ag51
ag289
ag514
ag66
ag397
ag353
ag76
ag81
ag152
ag505
ag91
ag107
ag117
ag97
ag102
ag132
ag426
ag142
ag147
ag239
ag533
ag254
ag167
ag343
ag215
ag177
ag475
ag328
ag186
ag495
ag195
ag200
ag205
ag210
ag86
ag162
ag71
ag234
ag112
ag470
ag244
ag127
ag249
ag378
ag182
ag264
ag269
ag382
ag279
ag284
ag406
ag294
ag299
ag304
ag309
ag319
ag324
ag314
ag338
ag411
ag348
ag259
ag358
ag368
ag373
ag56
ag274
ag387
ag172
ag392
ag509
ag137
ag416
ag431
ag436
ag440
ag225
ag445
ag450
ag455
ag523
ag122
ag460
ag465
ag567
ag401
ag572
ag485
ag490
ag37
ag500
ag363
ag518
ag552
ag220
ag333
ag229
ag528
ag157
ag538
ag542
ag547
ag421
ag557
ag562
ag61
ag577
ag582
ag480
atp1439
Rp1440
ag1419
((lp1441
((F0.75
F1.25
g3
tp1442
g5
((lp1443
S'obstacle'
p1444
aS'low'
p1445
atp1446
Rp1447
I3
tp1448
a(g224
g1447
I0
tp1449
a(g278
g194
I5
tp1450
a(g347
g1447
I4
tp1451
a(g1207
g27
I5
tp1452
a(g36
g10
I5
tp1453
a(g396
g1447
I1
tp1454
a(g209
g27
I5
tp1455
a(g131
g27
I5
tp1456
a((F2.25
F0.25
g35
tp1457
g50
I5
tp1458
a((F0.75
F0.25
g35
tp1459
g27
I5
tp1460
a(g396
g1447
I2
tp1461
a(g224
g27
I5
tp1462
a(g352
g27
I5
tp1463
a(g1276
g27
I5
tp1464
a(g415
g27
I5
tp1465
a(g654
g1447
I3
tp1466
a(g156
g1447
I1
tp1467
a((F0.75
F0.25
g3
tp1468
g27
I5
tp1469
a(g974
g10
I5
tp1470
a(g396
g1447
I4
tp1471
a(g85
g1447
I1
tp1472
a(g24
g1447
I0
tp1473
a((F0.75
F1.25
g23
tp1474
g27
I5
tp1475
a(g1053
g27
I5
tp1476
a(g85
g1447
I4
tp1477
a(g224
g1447
I5
tp1478
a(g556
g27
I5
tp1479
a((F0.75
F1.25
g23
tp1480
g1447
I3
tp1481
a((F0.75
F0.25
g95
tp1482
g27
I5
tp1483
a(g85
g1447
I5
tp1484
a(g1402
g50
I5
tp1485
a(g24
g1447
I2
tp1486
a(g85
g1447
I0
tp1487
a(g917
g27
I5
tp1488
a(g85
g27
I5
tp1489
a(g1474
g1447
I5
tp1490
a(g566
g27
I5
tp1491
a(g786
g27
I5
tp1492
a(g745
g50
I5
tp1493
a(g156
g1447
I4
tp1494
a(g55
g27
I5
tp1495
a(g268
g194
I5
tp1496
a((F1.75
F0.75
g35
tp1497
g27
I5
tp1498
a(g347
g1447
I1
tp1499
a((F0.75
F0.75
g23
tp1500
g27
I5
tp1501
a(g479
g27
I5
tp1502
a(g75
g27
I5
tp1503
a(g248
g1447
I5
tp1504
a(g283
g27
I5
tp1505
a(g527
g27
I5
tp1506
a(g298
g27
I5
tp1507
a(g347
g1447
I2
tp1508
a(g855
g27
I5
tp1509
a((F2.25
F1.25
g23
tp1510
g10
I5
tp1511
a((F1.25
F0.75
g35
tp1512
g27
I5
tp1513
a(g248
g27
I5
tp1514
a(g386
g27
I5
tp1515
a((F0.75
F1.25
g35
tp1516
g1447
I3
tp1517
a(g845
g27
I5
tp1518
a(g391
g27
I5
tp1519
a(g238
g27
I5
tp1520
a(g248
g1447
I0
tp1521
a((F1.75
F0.75
g95
tp1522
g27
I5
tp1523
a((F0.25
F0.75
g3
tp1524
g27
I5
tp1525
a((F0.25
F1.25
g35
tp1526
g194
I5
tp1527
a(g532
g27
I5
tp1528
a(g166
g10
I5
tp1529
a((F1.75
F0.75
g3
tp1530
g27
I5
tp1531
a((F0.25
F1.25
g3
tp1532
g194
I5
tp1533
a(g454
g27
I5
tp1534
a(g944
g27
I5
tp1535
a(g464
g27
I5
tp1536
a(g161
g27
I5
tp1537
a((F1.75
F0.25
g3
tp1538
g27
I5
tp1539
a((F2.25
F0.75
g35
tp1540
g27
I5
tp1541
a(g65
g27
I5
tp1542
a(g1254
g27
I5
tp1543
a((F0.75
F1.25
g3
tp1544
g1447
I2
tp1545
a(g1015
g50
I5
tp1546
atp1547
Rp1548
aa(dp1549
g1448
(lp1550
(lp1551
g16
ag18
ag21
ag20
ag33
aa(lp1552
I0
aI0
aI0
aI0
aI1
aasg1449
(lp1553
(lp1554
g16
ag18
ag33
ag20
ag21
aa(lp1555
I1
aI0
aI0
aI0
aI0
aasg1450
(lp1556
(lp1557
g16
ag18
ag20
ag21
aa(lp1558
F0.25
aF0.25
aF0.25
aF0.25
aasg1509
(lp1559
(lp1560
g16
ag18
ag20
ag21
aa(lp1561
F0.25
aF0.25
aF0.25
aF0.25
aasg1479
(lp1562
(lp1563
g20
ag16
ag33
ag18
ag21
aa(lp1564
F0.2
aF0.2
aF0.2
aF0.2
aF0.2
aasg1453
(lp1565
(lp1566
g16
ag18
ag20
ag21
aa(lp1567
F0.25
aF0.25
aF0.25
aF0.25
aasg1454
(lp1568
(lp1569
g16
ag18
ag33
ag20
ag21
aa(lp1570
I1
aI0
aI0
aI0
aI0
aasg1489
(lp1571
(lp1572
g16
ag18
ag21
ag20
ag33
aa(lp1573
F0.2
aF0.2
aF0.2
aF0.2
aF0.2
aasg1456
(lp1574
(lp1575
g33
ag21
ag18
ag20
aa(lp1576
F0.25
aF0.25
aF0.25
aF0.25
aasg1472
(lp1577
(lp1578
g16
ag18
ag21
ag20
ag33
aa(lp1579
I0
aI0
aI0
aI0
aI1
aasg1461
(lp1580
(lp1581
g16
ag18
ag33
ag20
ag21
aa(lp1582
I1
aI0
aI0
aI0
aI0
aasg1523
(lp1583
(lp1584
g20
ag16
ag33
ag18
ag21
aa(lp1585
F0.2
aF0.2
aF0.2
aF0.2
aF0.2
aasg1517
(lp1586
(lp1587
g16
ag18
ag33
ag20
ag21
aa(lp1588
I0
aI0
aI1
aI0
aI0
aasg1460
(lp1589
(lp1590
g16
ag18
ag21
ag20
ag33
aa(lp1591
F0.2
aF0.2
aF0.2
aF0.2
aF0.2
aasg1466
(lp1592
(lp1593
g16
ag18
ag33
ag20
ag21
aa(lp1594
I1
aI0
aI0
aI0
aI0
aasg1467
(lp1595
(lp1596
g16
ag33
ag18
ag20
ag21
aa(lp1597
I1
aI0
aI0
aI0
aI0
aasg1470
(lp1598
(lp1599
g16
ag18
ag20
ag21
aa(lp1600
F0.25
aF0.25
aF0.25
aF0.25
aasg1531
(lp1601
(lp1602
g16
ag33
ag21
ag18
ag20
aa(lp1603
F0.2
aF0.2
aF0.2
aF0.2
aF0.2
aasg1471
(lp1604
(lp1605
g16
ag18
ag33
ag20
ag21
aa(lp1606
I1
aI0
aI0
aI0
aI0
aasg1473
(lp1607
(lp1608
g16
ag33
ag18
ag20
ag21
aa(lp1609
I1
aI0
aI0
aI0
aI0
aasg1514
(lp1610
(lp1611
g16
ag18
ag33
ag20
ag21
aa(lp1612
F0.2
aF0.2
aF0.2
aF0.2
aF0.2
aasg1465
(lp1613
(lp1614
g18
ag21
ag20
ag33
aa(lp1615
F0.25
aF0.25
aF0.25
aF0.25
aasg1477
(lp1616
(lp1617
g16
ag18
ag21
ag20
ag33
aa(lp1618
I0
aI0
aI0
aI0
aI1
aasg1478
(lp1619
(lp1620
g16
ag18
ag33
ag20
ag21
aa(lp1621
F0.2
aF0.2
aF0.2
aF0.2
aF0.2
aasg1481
(lp1622
(lp1623
g16
ag33
ag18
ag20
ag21
aa(lp1624
I1
aI0
aI0
aI0
aI0
aasg1542
(lp1625
(lp1626
g16
ag18
ag20
ag21
aa(lp1627
F0.25
aF0.25
aF0.25
aF0.25
aasg1484
(lp1628
(lp1629
g16
ag18
ag21
ag20
ag33
aa(lp1630
F0.2
aF0.2
aF0.2
aF0.2
aF0.2
aasg1543
(lp1631
(lp1632
g16
ag18
ag33
ag20
ag21
aa(lp1633
F0.2
aF0.2
aF0.2
aF0.2
aF0.2
aasg1539
(lp1634
(lp1635
g20
ag33
ag18
ag21
aa(lp1636
F0.25
aF0.25
aF0.25
aF0.25
aasg1486
(lp1637
(lp1638
g16
ag33
ag18
ag20
ag21
aa(lp1639
I1
aI0
aI0
aI0
aI0
aasg1487
(lp1640
(lp1641
g16
ag18
ag21
ag20
ag33
aa(lp1642
I0
aI0
aI0
aI0
aI1
aasg1455
(lp1643
(lp1644
g16
ag18
ag20
ag21
aa(lp1645
F0.25
aF0.25
aF0.25
aF0.25
aasg1490
(lp1646
(lp1647
g16
ag33
ag18
ag20
ag21
aa(lp1648
F0.2
aF0.2
aF0.2
aF0.2
aF0.2
aasg1491
(lp1649
(lp1650
g16
ag33
ag21
ag18
ag20
aa(lp1651
F0.2
aF0.2
aF0.2
aF0.2
aF0.2
aasg1458
(lp1652
(lp1653
g16
ag18
ag20
ag21
aa(lp1654
F0.25
aF0.25
aF0.25
aF0.25
aasg1494
(lp1655
(lp1656
g16
ag33
ag18
ag20
ag21
aa(lp1657
I1
aI0
aI0
aI0
aI0
aasg1495
(lp1658
(lp1659
g16
ag33
ag21
ag18
ag20
aa(lp1660
F0.2
aF0.2
aF0.2
aF0.2
aF0.2
aasg1496
(lp1661
(lp1662
g16
ag18
ag33
ag20
ag21
aa(lp1663
F0.2
aF0.2
aF0.2
aF0.2
aF0.2
aasg1513
(lp1664
(lp1665
g16
ag18
ag33
ag20
ag21
aa(lp1666
F0.2
aF0.2
aF0.2
aF0.2
aF0.2
aasg1499
(lp1667
(lp1668
g16
ag18
ag33
ag20
ag21
aa(lp1669
I0
aI0
aI1
aI0
aI0
aasg1501
(lp1670
(lp1671
g16
ag33
ag18
ag20
ag21
aa(lp1672
F0.2
aF0.2
aF0.2
aF0.2
aF0.2
aasg1451
(lp1673
(lp1674
g16
ag18
ag33
ag20
ag21
aa(lp1675
I0
aI0
aI1
aI0
aI0
aasg1504
(lp1676
(lp1677
g16
ag18
ag33
ag20
ag21
aa(lp1678
F0.2
aF0.2
aF0.2
aF0.2
aF0.2
aasg1505
(lp1679
(lp1680
g16
ag18
ag33
ag20
ag21
aa(lp1681
F0.2
aF0.2
aF0.2
aF0.2
aF0.2
aasg1483
(lp1682
(lp1683
g16
ag18
ag33
ag20
ag21
aa(lp1684
F0.2
aF0.2
aF0.2
aF0.2
aF0.2
aasg1476
(lp1685
(lp1686
g16
ag33
ag21
ag18
ag20
aa(lp1687
F0.2
aF0.2
aF0.2
aF0.2
aF0.2
aasg1498
(lp1688
(lp1689
g16
ag33
ag21
ag18
ag20
aa(lp1690
F0.2
aF0.2
aF0.2
aF0.2
aF0.2
aasg1508
(lp1691
(lp1692
g16
ag18
ag33
ag20
ag21
aa(lp1693
I0
aI0
aI1
aI0
aI0
aasg1506
(lp1694
(lp1695
g16
ag18
ag20
ag21
aa(lp1696
F0.25
aF0.25
aF0.25
aF0.25
aasg1536
(lp1697
(lp1698
g16
ag33
ag18
ag20
ag21
aa(lp1699
F0.2
aF0.2
aF0.2
aF0.2
aF0.2
aasg1485
(lp1700
(lp1701
g18
ag33
ag20
ag21
aa(lp1702
F0.25
aF0.25
aF0.25
aF0.25
aasg1525
(lp1703
(lp1704
g20
ag16
ag33
ag18
ag21
aa(lp1705
F0.2
aF0.2
aF0.2
aF0.2
aF0.2
aasg1464
(lp1706
(lp1707
g33
ag21
ag18
ag20
aa(lp1708
F0.25
aF0.25
aF0.25
aF0.25
aasg1515
(lp1709
(lp1710
g16
ag18
ag20
ag21
aa(lp1711
F0.25
aF0.25
aF0.25
aF0.25
aasg1503
(lp1712
(lp1713
g16
ag18
ag20
ag21
aa(lp1714
F0.25
aF0.25
aF0.25
aF0.25
aasg1518
(lp1715
(lp1716
g16
ag33
ag18
ag20
ag21
aa(lp1717
F0.2
aF0.2
aF0.2
aF0.2
aF0.2
aasg1462
(lp1718
(lp1719
g16
ag18
ag33
ag20
ag21
aa(lp1720
F0.2
aF0.2
aF0.2
aF0.2
aF0.2
aasg1493
(lp1721
(lp1722
g20
ag33
ag18
ag21
aa(lp1723
F0.25
aF0.25
aF0.25
aF0.25
aasg1463
(lp1724
(lp1725
g16
ag33
ag21
ag18
ag20
aa(lp1726
F0.2
aF0.2
aF0.2
aF0.2
aF0.2
aasg1521
(lp1727
(lp1728
g16
ag18
ag33
ag20
ag21
aa(lp1729
I0
aI0
aI1
aI0
aI0
aasg1452
(lp1730
(lp1731
g18
ag33
ag20
ag21
aa(lp1732
F0.25
aF0.25
aF0.25
aF0.25
aasg1527
(lp1733
(lp1734
g33
ag21
ag18
ag20
aa(lp1735
F0.25
aF0.25
aF0.25
aF0.25
aasg1528
(lp1736
(lp1737
g18
ag21
ag20
ag33
aa(lp1738
F0.25
aF0.25
aF0.25
aF0.25
aasg1529
(lp1739
(lp1740
g18
ag21
ag20
ag33
aa(lp1741
F0.25
aF0.25
aF0.25
aF0.25
aasg1469
(lp1742
(lp1743
g20
ag33
ag18
ag21
aa(lp1744
F0.25
aF0.25
aF0.25
aF0.25
aasg1533
(lp1745
(lp1746
g16
ag33
ag21
ag18
ag20
aa(lp1747
F0.2
aF0.2
aF0.2
aF0.2
aF0.2
aasg1534
(lp1748
(lp1749
g16
ag33
ag18
ag20
ag21
aa(lp1750
F0.2
aF0.2
aF0.2
aF0.2
aF0.2
aasg1541
(lp1751
(lp1752
g16
ag18
ag20
ag21
aa(lp1753
F0.25
aF0.25
aF0.25
aF0.25
aasg1535
(lp1754
(lp1755
g20
ag16
ag33
ag18
ag21
aa(lp1756
F0.2
aF0.2
aF0.2
aF0.2
aF0.2
aasg1488
(lp1757
(lp1758
g16
ag18
ag20
ag21
aa(lp1759
F0.25
aF0.25
aF0.25
aF0.25
aasg1537
(lp1760
(lp1761
g18
ag33
ag20
ag21
aa(lp1762
F0.25
aF0.25
aF0.25
aF0.25
aasg1519
(lp1763
(lp1764
g16
ag18
ag20
ag21
aa(lp1765
F0.25
aF0.25
aF0.25
aF0.25
aasg1520
(lp1766
(lp1767
g20
ag33
ag18
ag21
aa(lp1768
F0.25
aF0.25
aF0.25
aF0.25
aasg1492
(lp1769
(lp1770
g16
ag18
ag33
ag20
ag21
aa(lp1771
F0.2
aF0.2
aF0.2
aF0.2
aF0.2
aasg1475
(lp1772
(lp1773
g16
ag33
ag18
ag20
ag21
aa(lp1774
F0.2
aF0.2
aF0.2
aF0.2
aF0.2
aasg1502
(lp1775
(lp1776
g20
ag16
ag33
ag18
ag21
aa(lp1777
F0.2
aF0.2
aF0.2
aF0.2
aF0.2
aasg1511
(lp1778
(lp1779
g33
ag21
ag18
ag20
aa(lp1780
F0.25
aF0.25
aF0.25
aF0.25
aasg1545
(lp1781
(lp1782
g16
ag18
ag21
ag20
ag33
aa(lp1783
I0
aI0
aI0
aI0
aI1
aasg1546
(lp1784
(lp1785
g16
ag18
ag20
ag21
aa(lp1786
F0.25
aF0.25
aF0.25
aF0.25
aasg1507
(lp1787
(lp1788
g16
ag33
ag18
ag20
ag21
aa(lp1789
F0.2
aF0.2
aF0.2
aF0.2
aF0.2
aasa.