(lp0
(lp1
(dp2
((F2.25
F1.25
S'S'
p3
tp4
c__builtin__
frozenset
p5
((lp6
S'base2'
p7
aS'base'
p8
atp9
Rp10
I1
tp11
(lp12
(lp13
(S'F'
p14
S'R'
p15
tp16
a(g3
S'T'
p17
tp18
a(g17
S'L'
p19
tp20
a(g17
g15
tp21
aa(lp22
F0.0
aF1.0
aF0.0
aF0.0
aas((F0.75
F1.25
S'N'
p23
tp24
g5
((lp25
tp26
Rp27
I0
tp28
(lp29
(lp30
(S'B'
p31
S'K'
p32
tp33
ag21
ag18
ag20
aa(lp34
F0.25
aF0.25
aF0.25
aF0.25
aas((F1.75
F0.25
g23
tp35
g27
I1
tp36
(lp37
(lp38
g16
ag18
ag20
ag21
aa(lp39
F0.25
aF0.25
aF0.25
aF0.25
aas((F2.25
F0.25
g23
tp40
g5
((lp41
S'base1'
p42
ag8
atp43
Rp44
I0
tp45
(lp46
(lp47
g16
ag18
ag20
ag21
aa(lp48
F1.0
aF0.0
aF0.0
aF0.0
aas((F1.25
F0.75
g23
tp49
g27
I1
tp50
(lp51
(lp52
g16
ag18
ag33
ag20
ag21
aa(lp53
F0.2
aF0.2
aF0.2
aF0.2
aF0.2
aas((F2.25
F0.75
g3
tp54
g27
I0
tp55
(lp56
(lp57
g20
ag16
ag33
ag18
ag21
aa(lp58
F0.0
aF1.0
aF0.0
aF0.0
aF0.0
aas((F1.75
F1.25
g23
tp59
g27
I1
tp60
(lp61
(lp62
g18
ag33
ag20
ag21
aa(lp63
F0.0
aF0.0
aF0.0
aF1.0
aas((F0.75
F1.25
S'E'
p64
tp65
g27
I1
tp66
(lp67
(lp68
g16
ag18
ag33
ag20
ag21
aa(lp69
F0.2
aF0.2
aF0.2
aF0.2
aF0.2
aas((F0.75
F1.25
g3
tp70
g27
I1
tp71
(lp72
(lp73
g16
ag18
ag20
ag21
aa(lp74
F0.25
aF0.25
aF0.25
aF0.25
aas((F1.25
F0.25
S'W'
p75
tp76
g27
I1
tp77
(lp78
(lp79
g16
ag33
ag18
ag20
ag21
aa(lp80
F0.2
aF0.2
aF0.2
aF0.2
aF0.2
aas((F1.25
F1.25
g64
tp81
g27
I1
tp82
(lp83
(lp84
g16
ag18
ag33
ag20
ag21
aa(lp85
F0.2
aF0.2
aF0.2
aF0.2
aF0.2
aas((F1.75
F0.75
g3
tp86
g27
I0
tp87
(lp88
(lp89
g20
ag16
ag33
ag18
ag21
aa(lp90
F0.2
aF0.2
aF0.2
aF0.2
aF0.2
aas((F0.25
F0.25
g23
tp91
g27
I0
tp92
(lp93
(lp94
g16
ag18
ag20
ag21
aa(lp95
F0.0
aF0.0
aF0.0
aF1.0
aas((F0.75
F0.25
g64
tp96
g27
I0
tp97
(lp98
(lp99
g20
ag16
ag33
ag18
ag21
aa(lp100
F0.0
aF1.0
aF0.0
aF0.0
aF0.0
aas((F1.25
F0.25
g23
tp101
g27
I0
tp102
(lp103
(lp104
g16
ag18
ag20
ag21
aa(lp105
F0.25
aF0.25
aF0.25
aF0.25
aas((F0.25
F0.75
g75
tp106
g27
I0
tp107
(lp108
(lp109
g33
ag21
ag18
ag20
aa(lp110
F0.25
aF0.25
aF0.25
aF0.25
aas((F0.75
F0.75
g3
tp111
g27
I0
tp112
(lp113
(lp114
g20
ag16
ag18
ag33
ag21
aa(lp115
F0.0
aF1.0
aF0.0
aF0.0
aF0.0
aas((F0.75
F0.25
g75
tp116
g27
I1
tp117
(lp118
(lp119
g16
ag18
ag21
ag20
ag33
aa(lp120
F0.2
aF0.2
aF0.2
aF0.2
aF0.2
aas((F1.25
F1.25
g3
tp121
g27
I1
tp122
(lp123
(lp124
g16
ag18
ag20
ag21
aa(lp125
F0.25
aF0.25
aF0.25
aF0.25
aas((F1.75
F0.75
g23
tp126
g27
I0
tp127
(lp128
(lp129
g16
ag18
ag33
ag20
ag21
aa(lp130
F0.2
aF0.2
aF0.2
aF0.2
aF0.2
aas((F0.25
F0.25
g75
tp131
g27
I0
tp132
(lp133
(lp134
g18
ag33
ag20
ag21
aa(lp135
F0.25
aF0.25
aF0.25
aF0.25
aas((F1.25
F0.25
g23
tp136
g27
I1
tp137
(lp138
(lp139
g16
ag18
ag20
ag21
aa(lp140
F0.25
aF0.25
aF0.25
aF0.25
aas((F2.25
F0.25
g3
tp141
g44
I0
tp142
(lp143
(lp144
g20
ag33
ag18
ag21
aa(lp145
F0.0
aF1.0
aF0.0
aF0.0
aas((F2.25
F1.25
g23
tp146
g10
I1
tp147
(lp148
(lp149
g33
ag21
ag18
ag20
aa(lp150
F0.0
aF0.0
aF1.0
aF0.0
aas((F0.25
F0.75
g64
tp151
g27
I0
tp152
(lp153
(lp154
g16
ag18
ag20
ag21
aa(lp155
F0.25
aF0.25
aF0.25
aF0.25
aas((F0.25
F0.25
g64
tp156
g27
I0
tp157
(lp158
(lp159
g16
ag18
ag20
ag21
aa(lp160
F1.0
aF0.0
aF0.0
aF0.0
aas((F2.25
F1.25
g64
tp161
g10
I1
tp162
(lp163
(lp164
g20
ag33
ag18
ag21
aa(lp165
F0.0
aF0.0
aF1.0
aF0.0
aas((F0.75
F0.25
g64
tp166
g27
I1
tp167
(lp168
(lp169
g20
ag16
ag33
ag18
ag21
aa(lp170
F0.2
aF0.2
aF0.2
aF0.2
aF0.2
aas((F1.75
F0.25
g3
tp171
g27
I0
tp172
(lp173
(lp174
g20
ag33
ag18
ag21
aa(lp175
F1.0
aF0.0
aF0.0
aF0.0
aas((F2.25
F0.25
g75
tp176
g44
I0
tp177
(lp178
(lp179
g16
ag18
ag20
ag21
aa(lp180
F0.25
aF0.25
aF0.25
aF0.25
aas((F2.25
F0.75
g23
tp181
g27
I0
tp182
(lp183
(lp184
g16
ag33
ag18
ag20
ag21
aa(lp185
F0.0
aF1.0
aF0.0
aF0.0
aF0.0
aas((F1.75
F1.25
g75
tp186
g27
I0
tp187
(lp188
(lp189
g16
ag18
ag21
ag20
ag33
aa(lp190
F0.2
aF0.2
aF0.2
aF0.2
aF0.2
aas((F2.25
F1.25
g75
tp191
g10
I1
tp192
(lp193
(lp194
g16
ag18
ag20
ag21
aa(lp195
F0.25
aF0.25
aF0.25
aF0.25
aas((F1.25
F0.25
g64
tp196
g27
I1
tp197
(lp198
(lp199
g20
ag16
ag33
ag18
ag21
aa(lp200
F0.2
aF0.2
aF0.2
aF0.2
aF0.2
aas((F1.25
F0.25
g75
tp201
g27
I0
tp202
(lp203
(lp204
g16
ag33
ag18
ag20
ag21
aa(lp205
F0.2
aF0.2
aF0.2
aF0.2
aF0.2
aas((F0.75
F0.25
g23
tp206
g27
I1
tp207
(lp208
(lp209
g16
ag18
ag20
ag21
aa(lp210
F0.25
aF0.25
aF0.25
aF0.25
aas((F0.75
F1.25
g3
tp211
g27
I0
tp212
(lp213
(lp214
g16
ag18
ag20
ag21
aa(lp215
F0.25
aF0.25
aF0.25
aF0.25
aas((F0.25
F0.25
g3
tp216
g27
I0
tp217
(lp218
(lp219
g20
ag33
ag18
ag21
aa(lp220
F1.0
aF0.0
aF0.0
aF0.0
aas((F0.75
F0.25
g75
tp221
g27
I0
tp222
(lp223
(lp224
g16
ag18
ag21
ag20
ag33
aa(lp225
F0.2
aF0.2
aF0.2
aF0.2
aF0.2
aas((F0.75
F1.25
g64
tp226
g27
I0
tp227
(lp228
(lp229
g16
ag18
ag33
ag20
ag21
aa(lp230
F0.2
aF0.2
aF0.2
aF0.2
aF0.2
aas((F1.25
F0.75
g3
tp231
g27
I1
tp232
(lp233
(lp234
g20
ag16
ag33
ag18
ag21
aa(lp235
F0.2
aF0.2
aF0.2
aF0.2
aF0.2
aas((F0.25
F0.75
g23
tp236
g27
I0
tp237
(lp238
(lp239
g16
ag33
ag18
ag20
ag21
aa(lp240
F0.2
aF0.2
aF0.2
aF0.2
aF0.2
aas((F1.25
F0.25
g3
tp241
g27
I0
tp242
(lp243
(lp244
g20
ag33
ag18
ag21
aa(lp245
F1.0
aF0.0
aF0.0
aF0.0
aas((F1.25
F1.25
g23
tp246
g27
I1
tp247
(lp248
(lp249
g18
ag33
ag20
ag21
aa(lp250
F0.25
aF0.25
aF0.25
aF0.25
aas((F0.25
F1.25
g3
tp251
g5
((lp252
S'base3'
p253
ag8
atp254
Rp255
I1
tp256
(lp257
(lp258
g16
ag18
ag20
ag21
aa(lp259
F0.25
aF0.25
aF0.25
aF0.25
aas((F2.25
F0.75
g75
tp260
g27
I0
tp261
(lp262
(lp263
g16
ag18
ag20
ag21
aa(lp264
F0.0
aF0.0
aF0.0
aF1.0
aas((F2.25
F0.75
g64
tp265
g27
I0
tp266
(lp267
(lp268
g18
ag33
ag20
ag21
aa(lp269
F0.0
aF0.0
aF1.0
aF0.0
aas((F1.75
F0.75
g3
tp270
g27
I1
tp271
(lp272
(lp273
g20
ag16
ag33
ag18
ag21
aa(lp274
F1.0
aF0.0
aF0.0
aF0.0
aF0.0
aas((F0.75
F0.75
g3
tp275
g27
I1
tp276
(lp277
(lp278
g20
ag16
ag18
ag33
ag21
aa(lp279
F0.2
aF0.2
aF0.2
aF0.2
aF0.2
aas((F1.75
F1.25
g64
tp280
g27
I0
tp281
(lp282
(lp283
g16
ag18
ag33
ag20
ag21
aa(lp284
F1.0
aF0.0
aF0.0
aF0.0
aF0.0
aas((F0.25
F1.25
g23
tp285
g255
I0
tp286
(lp287
(lp288
g18
ag21
ag20
ag33
aa(lp289
F0.25
aF0.25
aF0.25
aF0.25
aas((F0.25
F1.25
g64
tp290
g255
I1
tp291
(lp292
(lp293
g16
ag18
ag20
ag21
aa(lp294
F0.25
aF0.25
aF0.25
aF0.25
aas((F0.75
F0.75
g75
tp295
g27
I0
tp296
(lp297
(lp298
g16
ag33
ag18
ag20
ag21
aa(lp299
F0.2
aF0.2
aF0.2
aF0.2
aF0.2
aas((F1.75
F0.75
g23
tp300
g27
I1
tp301
(lp302
(lp303
g16
ag18
ag33
ag20
ag21
aa(lp304
F0.0
aF0.0
aF0.0
aF0.0
aF1.0
aas((F0.25
F0.75
g3
tp305
g27
I0
tp306
(lp307
(lp308
g16
ag18
ag21
ag20
ag33
aa(lp309
F0.2
aF0.2
aF0.2
aF0.2
aF0.2
aas((F2.25
F0.25
g64
tp310
g44
I1
tp311
(lp312
(lp313
g18
ag33
ag20
ag21
aa(lp314
F0.0
aF0.0
aF1.0
aF0.0
aas((F0.25
F0.25
g75
tp315
g27
I1
tp316
(lp317
(lp318
g18
ag33
ag20
ag21
aa(lp319
F0.25
aF0.25
aF0.25
aF0.25
aas((F2.25
F1.25
g3
tp320
g10
I0
tp321
(lp322
(lp323
g16
ag18
ag20
ag21
aa(lp324
F1.0
aF0.0
aF0.0
aF0.0
aas(g121
g27
I0
tp325
(lp326
(lp327
g16
ag18
ag20
ag21
aa(lp328
F0.25
aF0.25
aF0.25
aF0.25
aas((F1.75
F0.25
g75
tp329
g27
I1
tp330
(lp331
(lp332
g16
ag33
ag18
ag20
ag21
aa(lp333
F0.2
aF0.2
aF0.2
aF0.2
aF0.2
aas((F2.25
F0.25
g23
tp334
g44
I1
tp335
(lp336
(lp337
g16
ag18
ag20
ag21
aa(lp338
F1.0
aF0.0
aF0.0
aF0.0
aas(g59
g27
I0
tp339
(lp340
(lp341
g18
ag33
ag20
ag21
aa(lp342
F0.25
aF0.25
aF0.25
aF0.25
aas((F1.25
F0.75
g75
tp343
g27
I0
tp344
(lp345
(lp346
g16
ag33
ag18
ag20
ag21
aa(lp347
F0.2
aF0.2
aF0.2
aF0.2
aF0.2
aas((F0.25
F0.75
g64
tp348
g27
I1
tp349
(lp350
(lp351
g16
ag18
ag20
ag21
aa(lp352
F0.25
aF0.25
aF0.25
aF0.25
aas((F0.75
F1.25
g75
tp353
g27
I0
tp354
(lp355
(lp356
g16
ag33
ag18
ag20
ag21
aa(lp357
F0.2
aF0.2
aF0.2
aF0.2
aF0.2
aas((F0.75
F1.25
g75
tp358
g27
I1
tp359
(lp360
(lp361
g16
ag33
ag18
ag20
ag21
aa(lp362
F0.2
aF0.2
aF0.2
aF0.2
aF0.2
aas((F2.25
F0.75
g3
tp363
g27
I1
tp364
(lp365
(lp366
g20
ag16
ag33
ag18
ag21
aa(lp367
F0.0
aF0.0
aF1.0
aF0.0
aF0.0
aas((F0.75
F0.75
g64
tp368
g27
I1
tp369
(lp370
(lp371
g20
ag16
ag33
ag18
ag21
aa(lp372
F0.2
aF0.2
aF0.2
aF0.2
aF0.2
aas((F1.75
F0.75
g75
tp373
g27
I0
tp374
(lp375
(lp376
g16
ag33
ag18
ag20
ag21
aa(lp377
F0.2
aF0.2
aF0.2
aF0.2
aF0.2
aas(g156
g27
I1
tp378
(lp379
(lp380
g16
ag18
ag20
ag21
aa(lp381
F0.25
aF0.25
aF0.25
aF0.25
aas((F0.25
F0.75
g75
tp382
g27
I1
tp383
(lp384
(lp385
g33
ag21
ag18
ag20
aa(lp386
F0.25
aF0.25
aF0.25
aF0.25
aas((F0.75
F0.25
g23
tp387
g27
I0
tp388
(lp389
(lp390
g16
ag18
ag20
ag21
aa(lp391
F0.25
aF0.25
aF0.25
aF0.25
aas((F1.75
F0.75
g64
tp392
g27
I1
tp393
(lp394
(lp395
g20
ag16
ag33
ag18
ag21
aa(lp396
F0.0
aF1.0
aF0.0
aF0.0
aF0.0
aas((F0.75
F0.75
g23
tp397
g27
I1
tp398
(lp399
(lp400
g16
ag33
ag18
ag20
ag21
aa(lp401
F0.2
aF0.2
aF0.2
aF0.2
aF0.2
aas((F2.25
F1.25
g64
tp402
g10
I0
tp403
(lp404
(lp405
g20
ag33
ag18
ag21
aa(lp406
F0.0
aF0.0
aF0.0
aF1.0
aas((F1.25
F1.25
g75
tp407
g27
I1
tp408
(lp409
(lp410
g16
ag18
ag33
ag20
ag21
aa(lp411
F0.2
aF0.2
aF0.2
aF0.2
aF0.2
aas((F2.25
F0.75
g23
tp412
g27
I1
tp413
(lp414
(lp415
g16
ag33
ag18
ag20
ag21
aa(lp416
F1.0
aF0.0
aF0.0
aF0.0
aF0.0
aas((F1.75
F0.25
g75
tp417
g27
I0
tp418
(lp419
(lp420
g16
ag33
ag18
ag20
ag21
aa(lp421
F0.2
aF0.2
aF0.2
aF0.2
aF0.2
aas(g216
g27
I1
tp422
(lp423
(lp424
g20
ag33
ag18
ag21
aa(lp425
F0.25
aF0.25
aF0.25
aF0.25
aas((F0.75
F0.75
g23
tp426
g27
I0
tp427
(lp428
(lp429
g16
ag33
ag18
ag20
ag21
aa(lp430
F0.2
aF0.2
aF0.2
aF0.2
aF0.2
aas((F1.25
F1.25
g23
tp431
g27
I0
tp432
(lp433
(lp434
g18
ag33
ag20
ag21
aa(lp435
F0.25
aF0.25
aF0.25
aF0.25
aas((F1.25
F1.25
g75
tp436
g27
I0
tp437
(lp438
(lp439
g16
ag18
ag33
ag20
ag21
aa(lp440
F0.2
aF0.2
aF0.2
aF0.2
aF0.2
aas((F1.75
F0.25
g64
tp441
g27
I1
tp442
(lp443
(lp444
g16
ag18
ag33
ag20
ag21
aa(lp445
F0.2
aF0.2
aF0.2
aF0.2
aF0.2
aas(g146
g10
I0
tp446
(lp447
(lp448
g33
ag21
ag18
ag20
aa(lp449
F0.25
aF0.25
aF0.25
aF0.25
aas((F0.25
F0.25
g23
tp450
g27
I1
tp451
(lp452
(lp453
g16
ag18
ag20
ag21
aa(lp454
F0.25
aF0.25
aF0.25
aF0.25
aas((F0.75
F0.75
g75
tp455
g27
I1
tp456
(lp457
(lp458
g16
ag33
ag18
ag20
ag21
aa(lp459
F0.2
aF0.2
aF0.2
aF0.2
aF0.2
aas((F0.25
F0.75
g3
tp460
g27
I1
tp461
(lp462
(lp463
g16
ag18
ag21
ag20
ag33
aa(lp464
F0.2
aF0.2
aF0.2
aF0.2
aF0.2
aas((F1.25
F0.75
g23
tp465
g27
I0
tp466
(lp467
(lp468
g16
ag18
ag33
ag20
ag21
aa(lp469
F0.2
aF0.2
aF0.2
aF0.2
aF0.2
aas((F1.25
F0.75
g64
tp470
g27
I0
tp471
(lp472
(lp473
g20
ag16
ag33
ag18
ag21
aa(lp474
F0.0
aF1.0
aF0.0
aF0.0
aF0.0
aas((F2.25
F0.75
g64
tp475
g27
I1
tp476
(lp477
(lp478
g18
ag33
ag20
ag21
aa(lp479
F0.0
aF0.0
aF1.0
aF0.0
aas(g236
g27
I1
tp480
(lp481
(lp482
g16
ag33
ag18
ag20
ag21
aa(lp483
F0.2
aF0.2
aF0.2
aF0.2
aF0.2
aas((F0.75
F0.25
g3
tp484
g27
I0
tp485
(lp486
(lp487
g20
ag33
ag18
ag21
aa(lp488
F1.0
aF0.0
aF0.0
aF0.0
aas((F1.75
F0.75
g64
tp489
g27
I0
tp490
(lp491
(lp492
g20
ag16
ag33
ag18
ag21
aa(lp493
F0.0
aF1.0
aF0.0
aF0.0
aF0.0
aas((F1.75
F0.25
g64
tp494
g27
I0
tp495
(lp496
(lp497
g16
ag18
ag33
ag20
ag21
aa(lp498
F1.0
aF0.0
aF0.0
aF0.0
aF0.0
aas((F1.75
F0.75
g75
tp499
g27
I1
tp500
(lp501
(lp502
g16
ag33
ag18
ag20
ag21
aa(lp503
F0.2
aF0.2
aF0.2
aF0.2
aF0.2
aas((F1.25
F1.25
g64
tp504
g27
I0
tp505
(lp506
(lp507
g16
ag18
ag33
ag20
ag21
aa(lp508
F0.2
aF0.2
aF0.2
aF0.2
aF0.2
aas((F2.25
F0.25
g75
tp509
g44
I1
tp510
(lp511
(lp512
g16
ag18
ag20
ag21
aa(lp513
F0.0
aF0.0
aF0.0
aF1.0
aas((F2.25
F1.25
g75
tp514
g10
I0
tp515
(lp516
(lp517
g16
ag18
ag20
ag21
aa(lp518
F0.25
aF0.25
aF0.25
aF0.25
aas((F0.25
F1.25
g75
tp519
g255
I1
tp520
(lp521
(lp522
g33
ag21
ag18
ag20
aa(lp523
F0.25
aF0.25
aF0.25
aF0.25
aas((F1.75
F1.25
g3
tp524
g27
I1
tp525
(lp526
(lp527
g16
ag18
ag20
ag21
aa(lp528
F0.0
aF0.0
aF1.0
aF0.0
aas((F1.25
F0.25
g3
tp529
g27
I1
tp530
(lp531
(lp532
g20
ag33
ag18
ag21
aa(lp533
F0.25
aF0.25
aF0.25
aF0.25
aas((F1.25
F0.75
g75
tp534
g27
I1
tp535
(lp536
(lp537
g16
ag33
ag18
ag20
ag21
aa(lp538
F0.2
aF0.2
aF0.2
aF0.2
aF0.2
aas((F1.25
F0.75
g64
tp539
g27
I1
tp540
(lp541
(lp542
g20
ag16
ag33
ag18
ag21
aa(lp543
F0.2
aF0.2
aF0.2
aF0.2
aF0.2
aas((F0.25
F1.25
g3
tp544
g255
I0
tp545
(lp546
(lp547
g16
ag18
ag20
ag21
aa(lp548
F0.25
aF0.25
aF0.25
aF0.25
aas((F2.25
F0.25
g3
tp549
g44
I1
tp550
(lp551
(lp552
g20
ag33
ag18
ag21
aa(lp553
F0.25
aF0.25
aF0.25
aF0.25
aas((F1.75
F1.25
g3
tp554
g27
I0
tp555
(lp556
(lp557
g16
ag18
ag20
ag21
aa(lp558
F0.25
aF0.25
aF0.25
aF0.25
aas((F1.75
F0.25
g3
tp559
g27
I1
tp560
(lp561
(lp562
g20
ag33
ag18
ag21
aa(lp563
F0.25
aF0.25
aF0.25
aF0.25
aas(g35
g27
I0
tp564
(lp565
(lp566
g16
ag18
ag20
ag21
aa(lp567
F0.0
aF0.0
aF0.0
aF1.0
aas((F0.75
F1.25
g23
tp568
g27
I1
tp569
(lp570
(lp571
g33
ag21
ag18
ag20
aa(lp572
F0.25
aF0.25
aF0.25
aF0.25
aas((F0.25
F1.25
g23
tp573
g255
I1
tp574
(lp575
(lp576
g18
ag21
ag20
ag33
aa(lp577
F0.25
aF0.25
aF0.25
aF0.25
aas((F0.25
F1.25
g64
tp578
g255
I0
tp579
(lp580
(lp581
g16
ag18
ag20
ag21
aa(lp582
F0.25
aF0.25
aF0.25
aF0.25
aas((F2.25
F0.75
g75
tp583
g27
I1
tp584
(lp585
(lp586
g16
ag18
ag20
ag21
aa(lp587
F0.25
aF0.25
aF0.25
aF0.25
aas((F1.75
F1.25
g64
tp588
g27
I1
tp589
(lp590
(lp591
g16
ag18
ag33
ag20
ag21
aa(lp592
F1.0
aF0.0
aF0.0
aF0.0
aF0.0
aas((F0.25
F1.25
g75
tp593
g255
I0
tp594
(lp595
(lp596
g33
ag21
ag18
ag20
aa(lp597
F0.25
aF0.25
aF0.25
aF0.25
aas((F0.75
F0.75
g64
tp598
g27
I0
tp599
(lp600
(lp601
g20
ag16
ag33
ag18
ag21
aa(lp602
F0.0
aF0.0
aF0.0
aF0.0
aF1.0
aas((F2.25
F0.25
g64
tp603
g44
I0
tp604
(lp605
(lp606
g18
ag33
ag20
ag21
aa(lp607
F0.0
aF0.0
aF1.0
aF0.0
aas((F1.25
F0.75
g3
tp608
g27
I0
tp609
(lp610
(lp611
g20
ag16
ag33
ag18
ag21
aa(lp612
F0.2
aF0.2
aF0.2
aF0.2
aF0.2
aas((F1.25
F0.25
g64
tp613
g27
I0
tp614
(lp615
(lp616
g20
ag16
ag33
ag18
ag21
aa(lp617
F0.0
aF1.0
aF0.0
aF0.0
aF0.0
aas((F1.75
F1.25
g75
tp618
g27
I1
tp619
(lp620
(lp621
g16
ag18
ag21
ag20
ag33
aa(lp622
F0.2
aF0.2
aF0.2
aF0.2
aF0.2
aas((F0.75
F0.25
g3
tp623
g27
I1
tp624
(lp625
(lp626
g20
ag33
ag18
ag21
aa(lp627
F0.25
aF0.25
aF0.25
aF0.25
aasaF25.458886896586748
aF0.0
a(dp628
((F2.25
F0.75
g23
tp629
g27
I2
tp630
F0.0
s((F1.75
F0.75
g75
tp631
g27
I2
tp632
F0.0
s((F2.25
F1.25
g75
tp633
g10
I2
tp634
F0.004273781218023024
s((F1.75
F1.25
g64
tp635
g27
I2
tp636
F0.0
s((F1.75
F0.75
g23
tp637
g27
I2
tp638
F0.0
s((F1.75
F1.25
g75
tp639
g27
I2
tp640
F0.0
s((F1.75
F0.75
g64
tp641
g27
I2
tp642
F0.0
s((F2.25
F1.25
g3
tp643
g10
I2
tp644
F0.017024552515569585
s(g54
g27
I2
tp645
F0.0
s((F2.25
F1.25
g64
tp646
g10
I2
tp647
F0.14806510004946438
s((F2.25
F1.25
g23
tp648
g10
I2
tp649
F0.830636566216943
s((F1.75
F0.75
g3
tp650
g27
I2
tp651
F0.0
saa(lp652
(dp653
(g641
g27
I3
tp654
(lp655
(lp656
g20
ag16
ag33
ag18
ag21
aa(lp657
F0.0
aF1.0
aF0.0
aF0.0
aF0.0
aas((F1.25
F0.75
g23
tp658
g27
I3
tp659
(lp660
(lp661
g16
ag18
ag33
ag20
ag21
aa(lp662
F0.2
aF0.2
aF0.2
aF0.2
aF0.2
aas((F1.25
F1.25
g3
tp663
g27
I4
tp664
(lp665
(lp666
g16
ag18
ag20
ag21
aa(lp667
F0.25
aF0.25
aF0.25
aF0.25
aas((F1.25
F0.25
g75
tp668
g27
I3
tp669
(lp670
(lp671
g16
ag33
ag18
ag20
ag21
aa(lp672
F0.2
aF0.2
aF0.2
aF0.2
aF0.2
aas(g40
g5
((lp673
g42
ag8
atp674
Rp675
I2
tp676
(lp677
(lp678
g16
ag18
ag20
ag21
aa(lp679
F0.0
aF0.0
aF1.0
aF0.0
aas((F1.75
F0.25
g75
tp680
g27
I3
tp681
(lp682
(lp683
g16
ag33
ag18
ag20
ag21
aa(lp684
F0.2
aF0.2
aF0.2
aF0.2
aF0.2
aas((F0.75
F0.75
g23
tp685
g27
I4
tp686
(lp687
(lp688
g16
ag33
ag18
ag20
ag21
aa(lp689
F0.2
aF0.2
aF0.2
aF0.2
aF0.2
aas((F0.25
F0.25
g75
tp690
g27
I4
tp691
(lp692
(lp693
g18
ag33
ag20
ag21
aa(lp694
F0.25
aF0.25
aF0.25
aF0.25
aas(g348
g27
I3
tp695
(lp696
(lp697
g16
ag18
ag20
ag21
aa(lp698
F0.25
aF0.25
aF0.25
aF0.25
aas((F1.25
F1.25
g23
tp699
g27
I2
tp700
(lp701
(lp702
g18
ag33
ag20
ag21
aa(lp703
F0.25
aF0.25
aF0.25
aF0.25
aas((F1.75
F0.25
g75
tp704
g27
I4
tp705
(lp706
(lp707
g16
ag33
ag18
ag20
ag21
aa(lp708
F0.2
aF0.2
aF0.2
aF0.2
aF0.2
aas((F2.25
F0.75
g64
tp709
g27
I2
tp710
(lp711
(lp712
g18
ag33
ag20
ag21
aa(lp713
F0.25
aF0.25
aF0.25
aF0.25
aas((F0.25
F0.75
g64
tp714
g27
I4
tp715
(lp716
(lp717
g16
ag18
ag20
ag21
aa(lp718
F0.25
aF0.25
aF0.25
aF0.25
aas((F0.25
F1.25
g75
tp719
g5
((lp720
g253
ag8
atp721
Rp722
I2
tp723
(lp724
(lp725
g33
ag21
ag18
ag20
aa(lp726
F0.0
aF0.0
aF0.0
aF1.0
aas((F1.75
F0.75
g23
tp727
g27
I2
tp728
(lp729
(lp730
g16
ag18
ag33
ag20
ag21
aa(lp731
F0.0
aF0.0
aF1.0
aF0.0
aF0.0
aas(g568
g27
I4
tp732
(lp733
(lp734
g33
ag21
ag18
ag20
aa(lp735
F0.25
aF0.25
aF0.25
aF0.25
aas((F0.75
F1.25
g75
tp736
g27
I4
tp737
(lp738
(lp739
g16
ag33
ag18
ag20
ag21
aa(lp740
F0.2
aF0.2
aF0.2
aF0.2
aF0.2
aas((F1.25
F1.25
g75
tp741
g27
I2
tp742
(lp743
(lp744
g16
ag18
ag33
ag20
ag21
aa(lp745
F0.2
aF0.2
aF0.2
aF0.2
aF0.2
aas(g623
g27
I2
tp746
(lp747
(lp748
g20
ag33
ag18
ag21
aa(lp749
F0.25
aF0.25
aF0.25
aF0.25
aas(g629
g27
I2
tp750
(lp751
(lp752
g16
ag33
ag18
ag20
ag21
aa(lp753
F0.0
aF1.0
aF0.0
aF0.0
aF0.0
aas((F0.25
F0.25
g64
tp754
g27
I3
tp755
(lp756
(lp757
g16
ag18
ag20
ag21
aa(lp758
F1.0
aF0.0
aF0.0
aF0.0
aas((F0.25
F0.25
g64
tp759
g27
I2
tp760
(lp761
(lp762
g16
ag18
ag20
ag21
aa(lp763
F0.0
aF0.0
aF1.0
aF0.0
aas((F0.75
F0.75
g64
tp764
g27
I3
tp765
(lp766
(lp767
g20
ag16
ag33
ag18
ag21
aa(lp768
F0.0
aF0.0
aF0.0
aF0.0
aF1.0
aas(g455
g27
I3
tp769
(lp770
(lp771
g16
ag33
ag18
ag20
ag21
aa(lp772
F0.2
aF0.2
aF0.2
aF0.2
aF0.2
aas((F1.25
F1.25
g3
tp773
g27
I3
tp774
(lp775
(lp776
g16
ag18
ag20
ag21
aa(lp777
F0.25
aF0.25
aF0.25
aF0.25
aas(g54
g27
I2
tp778
(lp779
(lp780
g20
ag16
ag33
ag18
ag21
aa(lp781
F0.0
aF1.0
aF0.0
aF0.0
aF0.0
aas((F2.25
F0.25
g3
tp782
g675
I4
tp783
(lp784
(lp785
g20
ag33
ag18
ag21
aa(lp786
F0.25
aF0.25
aF0.25
aF0.25
aas((F1.25
F0.75
g64
tp787
g27
I2
tp788
(lp789
(lp790
g20
ag16
ag33
ag18
ag21
aa(lp791
F0.2
aF0.2
aF0.2
aF0.2
aF0.2
aas(g529
g27
I2
tp792
(lp793
(lp794
g20
ag33
ag18
ag21
aa(lp795
F0.0
aF0.0
aF0.0
aF1.0
aas((F0.75
F0.25
g64
tp796
g27
I4
tp797
(lp798
(lp799
g20
ag16
ag33
ag18
ag21
aa(lp800
F0.2
aF0.2
aF0.2
aF0.2
aF0.2
aas(g206
g27
I2
tp801
(lp802
(lp803
g16
ag18
ag20
ag21
aa(lp804
F0.25
aF0.25
aF0.25
aF0.25
aas(g699
g27
I3
tp805
(lp806
(lp807
g18
ag33
ag20
ag21
aa(lp808
F0.25
aF0.25
aF0.25
aF0.25
aas(g76
g27
I4
tp809
(lp810
(lp811
g16
ag33
ag18
ag20
ag21
aa(lp812
F0.2
aF0.2
aF0.2
aF0.2
aF0.2
aas(g549
g675
I2
tp813
(lp814
(lp815
g20
ag33
ag18
ag21
aa(lp816
F0.0
aF0.0
aF0.0
aF1.0
aas((F0.25
F0.25
g3
tp817
g27
I4
tp818
(lp819
(lp820
g20
ag33
ag18
ag21
aa(lp821
F0.25
aF0.25
aF0.25
aF0.25
aas((F0.75
F1.25
g64
tp822
g27
I3
tp823
(lp824
(lp825
g16
ag18
ag33
ag20
ag21
aa(lp826
F0.2
aF0.2
aF0.2
aF0.2
aF0.2
aas(g635
g27
I6
tp827
(lp828
(lp829
g16
ag18
ag33
ag20
ag21
aa(lp830
F0.2
aF0.2
aF0.2
aF0.2
aF0.2
aas((F0.75
F0.75
g23
tp831
g27
I2
tp832
(lp833
(lp834
g16
ag33
ag18
ag20
ag21
aa(lp835
F0.0
aF0.0
aF0.0
aF1.0
aF0.0
aas(g290
g722
I2
tp836
(lp837
(lp838
g16
ag18
ag20
ag21
aa(lp839
F0.25
aF0.25
aF0.25
aF0.25
aas((F0.75
F0.75
g23
tp840
g27
I3
tp841
(lp842
(lp843
g16
ag33
ag18
ag20
ag21
aa(lp844
F0.0
aF1.0
aF0.0
aF0.0
aF0.0
aas(g412
g27
I4
tp845
(lp846
(lp847
g16
ag33
ag18
ag20
ag21
aa(lp848
F1.0
aF0.0
aF0.0
aF0.0
aF0.0
aas(g86
g27
I4
tp849
(lp850
(lp851
g20
ag16
ag33
ag18
ag21
aa(lp852
F1.0
aF0.0
aF0.0
aF0.0
aF0.0
aas((F1.25
F0.75
g75
tp853
g27
I3
tp854
(lp855
(lp856
g16
ag33
ag18
ag20
ag21
aa(lp857
F0.2
aF0.2
aF0.2
aF0.2
aF0.2
aas((F1.75
F1.25
g75
tp858
g27
I3
tp859
(lp860
(lp861
g16
ag18
ag21
ag20
ag33
aa(lp862
F0.2
aF0.2
aF0.2
aF0.2
aF0.2
aas(g236
g27
I4
tp863
(lp864
(lp865
g16
ag33
ag18
ag20
ag21
aa(lp866
F0.2
aF0.2
aF0.2
aF0.2
aF0.2
aas((F1.75
F1.25
g23
tp867
g27
I2
tp868
(lp869
(lp870
g18
ag33
ag20
ag21
aa(lp871
F0.25
aF0.25
aF0.25
aF0.25
aas((F2.25
F1.25
g23
tp872
g5
((lp873
g7
ag8
atp874
Rp875
I3
tp876
(lp877
(lp878
g33
ag21
ag18
ag20
aa(lp879
F0.25
aF0.25
aF0.25
aF0.25
aas(g639
g27
I2
tp880
(lp881
(lp882
g16
ag18
ag21
ag20
ag33
aa(lp883
F0.0
aF0.0
aF0.0
aF1.0
aF0.0
aas((F0.25
F0.25
g3
tp884
g27
I3
tp885
(lp886
(lp887
g20
ag33
ag18
ag21
aa(lp888
F1.0
aF0.0
aF0.0
aF0.0
aas((F1.75
F0.25
g23
tp889
g27
I4
tp890
(lp891
(lp892
g16
ag18
ag20
ag21
aa(lp893
F0.25
aF0.25
aF0.25
aF0.25
aas(g641
g27
I6
tp894
(lp895
(lp896
g20
ag16
ag33
ag18
ag21
aa(lp897
F0.2
aF0.2
aF0.2
aF0.2
aF0.2
aas(g593
g722
I4
tp898
(lp899
(lp900
g33
ag21
ag18
ag20
aa(lp901
F0.25
aF0.25
aF0.25
aF0.25
aas(g629
g27
I6
tp902
(lp903
(lp904
g16
ag33
ag18
ag20
ag21
aa(lp905
F0.2
aF0.2
aF0.2
aF0.2
aF0.2
aas((F0.75
F1.25
g23
tp906
g27
I3
tp907
(lp908
(lp909
g33
ag21
ag18
ag20
aa(lp910
F0.25
aF0.25
aF0.25
aF0.25
aas(g646
g875
I3
tp911
(lp912
(lp913
g20
ag33
ag18
ag21
aa(lp914
F0.0
aF0.0
aF0.0
aF1.0
aas(g514
g875
I3
tp915
(lp916
(lp917
g16
ag18
ag20
ag21
aa(lp918
F0.25
aF0.25
aF0.25
aF0.25
aas(g49
g27
I2
tp919
(lp920
(lp921
g16
ag18
ag33
ag20
ag21
aa(lp922
F0.0
aF0.0
aF0.0
aF1.0
aF0.0
aas((F0.75
F0.75
g75
tp923
g27
I4
tp924
(lp925
(lp926
g16
ag33
ag18
ag20
ag21
aa(lp927
F0.2
aF0.2
aF0.2
aF0.2
aF0.2
aas((F1.75
F0.25
g23
tp928
g27
I2
tp929
(lp930
(lp931
g16
ag18
ag20
ag21
aa(lp932
F0.0
aF0.0
aF1.0
aF0.0
aas(g773
g27
I2
tp933
(lp934
(lp935
g16
ag18
ag20
ag21
aa(lp936
F0.25
aF0.25
aF0.25
aF0.25
aas(g499
g27
I4
tp937
(lp938
(lp939
g16
ag33
ag18
ag20
ag21
aa(lp940
F0.2
aF0.2
aF0.2
aF0.2
aF0.2
aas((F1.75
F0.75
g75
tp941
g27
I3
tp942
(lp943
(lp944
g16
ag33
ag18
ag20
ag21
aa(lp945
F0.2
aF0.2
aF0.2
aF0.2
aF0.2
aas(g613
g27
I4
tp946
(lp947
(lp948
g20
ag16
ag33
ag18
ag21
aa(lp949
F0.2
aF0.2
aF0.2
aF0.2
aF0.2
aas((F2.25
F0.25
g75
tp950
g675
I4
tp951
(lp952
(lp953
g16
ag18
ag20
ag21
aa(lp954
F0.0
aF0.0
aF0.0
aF1.0
aas((F1.25
F0.75
g3
tp955
g27
I2
tp956
(lp957
(lp958
g20
ag16
ag33
ag18
ag21
aa(lp959
F0.2
aF0.2
aF0.2
aF0.2
aF0.2
aas((F1.75
F1.25
g64
tp960
g27
I2
tp961
(lp962
(lp963
g16
ag18
ag33
ag20
ag21
aa(lp964
F0.2
aF0.2
aF0.2
aF0.2
aF0.2
aas((F1.25
F0.75
g75
tp965
g27
I4
tp966
(lp967
(lp968
g16
ag33
ag18
ag20
ag21
aa(lp969
F0.2
aF0.2
aF0.2
aF0.2
aF0.2
aas((F1.25
F0.75
g3
tp970
g27
I4
tp971
(lp972
(lp973
g20
ag16
ag33
ag18
ag21
aa(lp974
F0.2
aF0.2
aF0.2
aF0.2
aF0.2
aas((F0.25
F1.25
g23
tp975
g722
I4
tp976
(lp977
(lp978
g18
ag21
ag20
ag33
aa(lp979
F0.25
aF0.25
aF0.25
aF0.25
aas((F1.75
F0.25
g3
tp980
g27
I4
tp981
(lp982
(lp983
g20
ag33
ag18
ag21
aa(lp984
F0.25
aF0.25
aF0.25
aF0.25
aas((F1.25
F1.25
g75
tp985
g27
I3
tp986
(lp987
(lp988
g16
ag18
ag33
ag20
ag21
aa(lp989
F0.2
aF0.2
aF0.2
aF0.2
aF0.2
aas(g54
g27
I6
tp990
(lp991
(lp992
g20
ag16
ag33
ag18
ag21
aa(lp993
F0.2
aF0.2
aF0.2
aF0.2
aF0.2
aas(g578
g722
I3
tp994
(lp995
(lp996
g16
ag18
ag20
ag21
aa(lp997
F1.0
aF0.0
aF0.0
aF0.0
aas(g759
g27
I4
tp998
(lp999
(lp1000
g16
ag18
ag20
ag21
aa(lp1001
F0.25
aF0.25
aF0.25
aF0.25
aas((F0.75
F1.25
g75
tp1002
g27
I3
tp1003
(lp1004
(lp1005
g16
ag33
ag18
ag20
ag21
aa(lp1006
F0.2
aF0.2
aF0.2
aF0.2
aF0.2
aas(g709
g27
I3
tp1007
(lp1008
(lp1009
g18
ag33
ag20
ag21
aa(lp1010
F0.0
aF0.0
aF1.0
aF0.0
aas((F1.25
F0.25
g23
tp1011
g27
I4
tp1012
(lp1013
(lp1014
g16
ag18
ag20
ag21
aa(lp1015
F0.25
aF0.25
aF0.25
aF0.25
aas((F0.75
F1.25
g3
tp1016
g27
I4
tp1017
(lp1018
(lp1019
g16
ag18
ag20
ag21
aa(lp1020
F0.25
aF0.25
aF0.25
aF0.25
aas((F1.75
F1.25
g64
tp1021
g27
I3
tp1022
(lp1023
(lp1024
g16
ag18
ag33
ag20
ag21
aa(lp1025
F1.0
aF0.0
aF0.0
aF0.0
aF0.0
aas((F0.75
F1.25
g64
tp1026
g27
I4
tp1027
(lp1028
(lp1029
g16
ag18
ag33
ag20
ag21
aa(lp1030
F0.2
aF0.2
aF0.2
aF0.2
aF0.2
aas(g603
g675
I4
tp1031
(lp1032
(lp1033
g18
ag33
ag20
ag21
aa(lp1034
F0.0
aF0.0
aF1.0
aF0.0
aas((F0.25
F0.25
g23
tp1035
g27
I4
tp1036
(lp1037
(lp1038
g16
ag18
ag20
ag21
aa(lp1039
F0.25
aF0.25
aF0.25
aF0.25
aas(g1035
g27
I3
tp1040
(lp1041
(lp1042
g16
ag18
ag20
ag21
aa(lp1043
F0.0
aF0.0
aF0.0
aF1.0
aas((F1.75
F1.25
g3
tp1044
g27
I3
tp1045
(lp1046
(lp1047
g16
ag18
ag20
ag21
aa(lp1048
F0.25
aF0.25
aF0.25
aF0.25
aas(g320
g875
I2
tp1049
(lp1050
(lp1051
g16
ag18
ag20
ag21
aa(lp1052
F1.0
aF0.0
aF0.0
aF0.0
aas(g631
g27
I6
tp1053
(lp1054
(lp1055
g16
ag33
ag18
ag20
ag21
aa(lp1056
F0.2
aF0.2
aF0.2
aF0.2
aF0.2
aas(g285
g722
I2
tp1057
(lp1058
(lp1059
g18
ag21
ag20
ag33
aa(lp1060
F0.0
aF0.0
aF0.0
aF1.0
aas(g310
g675
I3
tp1061
(lp1062
(lp1063
g18
ag33
ag20
ag21
aa(lp1064
F0.0
aF0.0
aF1.0
aF0.0
aas(g650
g27
I6
tp1065
(lp1066
(lp1067
g20
ag16
ag33
ag18
ag21
aa(lp1068
F0.2
aF0.2
aF0.2
aF0.2
aF0.2
aas(g980
g27
I2
tp1069
(lp1070
(lp1071
g20
ag33
ag18
ag21
aa(lp1072
F0.0
aF0.0
aF0.0
aF1.0
aas(g382
g27
I4
tp1073
(lp1074
(lp1075
g33
ag21
ag18
ag20
aa(lp1076
F0.25
aF0.25
aF0.25
aF0.25
aas((F1.75
F0.75
g64
tp1077
g27
I4
tp1078
(lp1079
(lp1080
g20
ag16
ag33
ag18
ag21
aa(lp1081
F0.0
aF1.0
aF0.0
aF0.0
aF0.0
aas(g539
g27
I4
tp1082
(lp1083
(lp1084
g20
ag16
ag33
ag18
ag21
aa(lp1085
F0.2
aF0.2
aF0.2
aF0.2
aF0.2
aas((F2.25
F0.25
g23
tp1086
g675
I3
tp1087
(lp1088
(lp1089
g16
ag18
ag20
ag21
aa(lp1090
F1.0
aF0.0
aF0.0
aF0.0
aas((F2.25
F1.25
g3
tp1091
g875
I6
tp1092
(lp1093
(lp1094
g16
ag18
ag20
ag21
aa(lp1095
F0.25
aF0.25
aF0.25
aF0.25
aas(g965
g27
I2
tp1096
(lp1097
(lp1098
g16
ag33
ag18
ag20
ag21
aa(lp1099
F1.0
aF0.0
aF0.0
aF0.0
aF0.0
aas((F0.75
F0.25
g64
tp1100
g27
I2
tp1101
(lp1102
(lp1103
g20
ag16
ag33
ag18
ag21
aa(lp1104
F0.2
aF0.2
aF0.2
aF0.2
aF0.2
aas(g494
g27
I4
tp1105
(lp1106
(lp1107
g16
ag18
ag33
ag20
ag21
aa(lp1108
F0.2
aF0.2
aF0.2
aF0.2
aF0.2
aas(g24
g27
I2
tp1109
(lp1110
(lp1111
g33
ag21
ag18
ag20
aa(lp1112
F0.0
aF0.0
aF0.0
aF1.0
aas(g320
g875
I4
tp1113
(lp1114
(lp1115
g16
ag18
ag20
ag21
aa(lp1116
F0.0
aF1.0
aF0.0
aF0.0
aas(g858
g27
I4
tp1117
(lp1118
(lp1119
g16
ag18
ag21
ag20
ag33
aa(lp1120
F0.2
aF0.2
aF0.2
aF0.2
aF0.2
aas((F0.25
F0.75
g75
tp1121
g27
I2
tp1122
(lp1123
(lp1124
g33
ag21
ag18
ag20
aa(lp1125
F0.0
aF0.0
aF0.0
aF1.0
aas((F0.75
F0.75
g3
tp1126
g27
I2
tp1127
(lp1128
(lp1129
g20
ag16
ag18
ag33
ag21
aa(lp1130
F0.2
aF0.2
aF0.2
aF0.2
aF0.2
aas(g1011
g27
I2
tp1131
(lp1132
(lp1133
g16
ag18
ag20
ag21
aa(lp1134
F1.0
aF0.0
aF0.0
aF0.0
aas((F1.75
F0.25
g23
tp1135
g27
I3
tp1136
(lp1137
(lp1138
g16
ag18
ag20
ag21
aa(lp1139
F0.0
aF0.0
aF0.0
aF1.0
aas(g460
g27
I4
tp1140
(lp1141
(lp1142
g16
ag18
ag21
ag20
ag33
aa(lp1143
F0.2
aF0.2
aF0.2
aF0.2
aF0.2
aas((F0.75
F0.25
g75
tp1144
g27
I3
tp1145
(lp1146
(lp1147
g16
ag18
ag21
ag20
ag33
aa(lp1148
F0.2
aF0.2
aF0.2
aF0.2
aF0.2
aas((F0.25
F1.25
g3
tp1149
g722
I3
tp1150
(lp1151
(lp1152
g16
ag18
ag20
ag21
aa(lp1153
F1.0
aF0.0
aF0.0
aF0.0
aas((F2.25
F0.25
g75
tp1154
g675
I2
tp1155
(lp1156
(lp1157
g16
ag18
ag20
ag21
aa(lp1158
F1.0
aF0.0
aF0.0
aF0.0
aas(g637
g27
I6
tp1159
(lp1160
(lp1161
g16
ag18
ag33
ag20
ag21
aa(lp1162
F0.2
aF0.2
aF0.2
aF0.2
aF0.2
aas(g131
g27
I2
tp1163
(lp1164
(lp1165
g18
ag33
ag20
ag21
aa(lp1166
F0.0
aF0.0
aF0.0
aF1.0
aas((F1.25
F0.25
g3
tp1167
g27
I4
tp1168
(lp1169
(lp1170
g20
ag33
ag18
ag21
aa(lp1171
F0.25
aF0.25
aF0.25
aF0.25
aas((F1.25
F0.75
g3
tp1172
g27
I3
tp1173
(lp1174
(lp1175
g20
ag16
ag33
ag18
ag21
aa(lp1176
F0.2
aF0.2
aF0.2
aF0.2
aF0.2
aas((F1.25
F1.25
g64
tp1177
g27
I3
tp1178
(lp1179
(lp1180
g16
ag18
ag33
ag20
ag21
aa(lp1181
F0.2
aF0.2
aF0.2
aF0.2
aF0.2
aas(g236
g27
I3
tp1182
(lp1183
(lp1184
g16
ag33
ag18
ag20
ag21
aa(lp1185
F0.0
aF1.0
aF0.0
aF0.0
aF0.0
aas(g146
g875
I4
tp1186
(lp1187
(lp1188
g33
ag21
ag18
ag20
aa(lp1189
F0.0
aF0.0
aF1.0
aF0.0
aas(g613
g27
I2
tp1190
(lp1191
(lp1192
g20
ag16
ag33
ag18
ag21
aa(lp1193
F0.2
aF0.2
aF0.2
aF0.2
aF0.2
aas((F1.25
F0.75
g64
tp1194
g27
I3
tp1195
(lp1196
(lp1197
g20
ag16
ag33
ag18
ag21
aa(lp1198
F0.0
aF1.0
aF0.0
aF0.0
aF0.0
aas((F2.25
F0.75
g3
tp1199
g27
I4
tp1200
(lp1201
(lp1202
g20
ag16
ag33
ag18
ag21
aa(lp1203
F0.0
aF0.0
aF1.0
aF0.0
aF0.0
aas(g598
g27
I4
tp1204
(lp1205
(lp1206
g20
ag16
ag33
ag18
ag21
aa(lp1207
F0.2
aF0.2
aF0.2
aF0.2
aF0.2
aas(g648
g875
I6
tp1208
(lp1209
(lp1210
g33
ag21
ag18
ag20
aa(lp1211
F0.25
aF0.25
aF0.25
aF0.25
aas((F0.75
F1.25
g75
tp1212
g27
I2
tp1213
(lp1214
(lp1215
g16
ag33
ag18
ag20
ag21
aa(lp1216
F1.0
aF0.0
aF0.0
aF0.0
aF0.0
aas((F0.25
F0.75
g3
tp1217
g27
I3
tp1218
(lp1219
(lp1220
g16
ag18
ag21
ag20
ag33
aa(lp1221
F1.0
aF0.0
aF0.0
aF0.0
aF0.0
aas(g1011
g27
I3
tp1222
(lp1223
(lp1224
g16
ag18
ag20
ag21
aa(lp1225
F0.0
aF0.0
aF0.0
aF1.0
aas((F2.25
F0.25
g3
tp1226
g675
I3
tp1227
(lp1228
(lp1229
g20
ag33
ag18
ag21
aa(lp1230
F0.0
aF1.0
aF0.0
aF0.0
aas((F1.75
F0.75
g23
tp1231
g27
I4
tp1232
(lp1233
(lp1234
g16
ag18
ag33
ag20
ag21
aa(lp1235
F0.0
aF0.0
aF0.0
aF0.0
aF1.0
aas(g402
g875
I4
tp1236
(lp1237
(lp1238
g20
ag33
ag18
ag21
aa(lp1239
F0.0
aF0.0
aF1.0
aF0.0
aas(g741
g27
I4
tp1240
(lp1241
(lp1242
g16
ag18
ag33
ag20
ag21
aa(lp1243
F0.2
aF0.2
aF0.2
aF0.2
aF0.2
aas((F2.25
F1.25
g23
tp1244
g875
I2
tp1245
(lp1246
(lp1247
g33
ag21
ag18
ag20
aa(lp1248
F1.0
aF0.0
aF0.0
aF0.0
aas((F2.25
F1.25
g64
tp1249
g875
I6
tp1250
(lp1251
(lp1252
g20
ag33
ag18
ag21
aa(lp1253
F0.25
aF0.25
aF0.25
aF0.25
aas((F2.25
F1.25
g75
tp1254
g875
I6
tp1255
(lp1256
(lp1257
g16
ag18
ag20
ag21
aa(lp1258
F0.25
aF0.25
aF0.25
aF0.25
aas(g387
g27
I4
tp1259
(lp1260
(lp1261
g16
ag18
ag20
ag21
aa(lp1262
F0.25
aF0.25
aF0.25
aF0.25
aas((F0.75
F0.25
g75
tp1263
g27
I4
tp1264
(lp1265
(lp1266
g16
ag18
ag21
ag20
ag33
aa(lp1267
F0.2
aF0.2
aF0.2
aF0.2
aF0.2
aas(g260
g27
I2
tp1268
(lp1269
(lp1270
g16
ag18
ag20
ag21
aa(lp1271
F0.25
aF0.25
aF0.25
aF0.25
aas((F0.75
F1.25
g3
tp1272
g27
I2
tp1273
(lp1274
(lp1275
g16
ag18
ag20
ag21
aa(lp1276
F0.0
aF0.0
aF0.0
aF1.0
aas(g1016
g27
I3
tp1277
(lp1278
(lp1279
g16
ag18
ag20
ag21
aa(lp1280
F0.25
aF0.25
aF0.25
aF0.25
aas(g59
g27
I4
tp1281
(lp1282
(lp1283
g18
ag33
ag20
ag21
aa(lp1284
F0.0
aF0.0
aF0.0
aF1.0
aas(g514
g875
I4
tp1285
(lp1286
(lp1287
g16
ag18
ag20
ag21
aa(lp1288
F0.25
aF0.25
aF0.25
aF0.25
aas(g265
g27
I4
tp1289
(lp1290
(lp1291
g18
ag33
ag20
ag21
aa(lp1292
F0.0
aF0.0
aF1.0
aF0.0
aas(g176
g675
I3
tp1293
(lp1294
(lp1295
g16
ag18
ag20
ag21
aa(lp1296
F0.25
aF0.25
aF0.25
aF0.25
aas(g554
g27
I2
tp1297
(lp1298
(lp1299
g16
ag18
ag20
ag21
aa(lp1300
F1.0
aF0.0
aF0.0
aF0.0
aas(g329
g27
I2
tp1301
(lp1302
(lp1303
g16
ag33
ag18
ag20
ag21
aa(lp1304
F1.0
aF0.0
aF0.0
aF0.0
aF0.0
aas(g504
g27
I4
tp1305
(lp1306
(lp1307
g16
ag18
ag33
ag20
ag21
aa(lp1308
F0.2
aF0.2
aF0.2
aF0.2
aF0.2
aas(g91
g27
I2
tp1309
(lp1310
(lp1311
g16
ag18
ag20
ag21
aa(lp1312
F1.0
aF0.0
aF0.0
aF0.0
aas((F1.75
F0.75
g3
tp1313
g27
I2
tp1314
(lp1315
(lp1316
g20
ag16
ag33
ag18
ag21
aa(lp1317
F0.0
aF1.0
aF0.0
aF0.0
aF0.0
aas((F0.25
F0.75
g64
tp1318
g27
I2
tp1319
(lp1320
(lp1321
g16
ag18
ag20
ag21
aa(lp1322
F0.0
aF0.0
aF0.0
aF1.0
aas(g270
g27
I3
tp1323
(lp1324
(lp1325
g20
ag16
ag33
ag18
ag21
aa(lp1326
F0.2
aF0.2
aF0.2
aF0.2
aF0.2
aas((F2.25
F0.75
g23
tp1327
g27
I3
tp1328
(lp1329
(lp1330
g16
ag33
ag18
ag20
ag21
aa(lp1331
F0.0
aF1.0
aF0.0
aF0.0
aF0.0
aas(g126
g27
I3
tp1332
(lp1333
(lp1334
g16
ag18
ag33
ag20
ag21
aa(lp1335
F0.2
aF0.2
aF0.2
aF0.2
aF0.2
aas((F1.25
F1.25
g23
tp1336
g27
I4
tp1337
(lp1338
(lp1339
g18
ag33
ag20
ag21
aa(lp1340
F0.25
aF0.25
aF0.25
aF0.25
aas((F2.25
F1.25
g64
tp1341
g875
I2
tp1342
(lp1343
(lp1344
g20
ag33
ag18
ag21
aa(lp1345
F0.0
aF0.0
aF0.0
aF1.0
aas((F1.75
F0.25
g64
tp1346
g27
I3
tp1347
(lp1348
(lp1349
g16
ag18
ag33
ag20
ag21
aa(lp1350
F1.0
aF0.0
aF0.0
aF0.0
aF0.0
aas((F2.25
F0.25
g23
tp1351
g675
I4
tp1352
(lp1353
(lp1354
g16
ag18
ag20
ag21
aa(lp1355
F1.0
aF0.0
aF0.0
aF0.0
aas((F0.25
F0.25
g3
tp1356
g27
I2
tp1357
(lp1358
(lp1359
g20
ag33
ag18
ag21
aa(lp1360
F0.25
aF0.25
aF0.25
aF0.25
aas((F0.75
F0.25
g64
tp1361
g27
I3
tp1362
(lp1363
(lp1364
g20
ag16
ag33
ag18
ag21
aa(lp1365
F0.0
aF1.0
aF0.0
aF0.0
aF0.0
aas(g633
g875
I2
tp1366
(lp1367
(lp1368
g16
ag18
ag20
ag21
aa(lp1369
F1.0
aF0.0
aF0.0
aF0.0
aas(g484
g27
I4
tp1370
(lp1371
(lp1372
g20
ag33
ag18
ag21
aa(lp1373
F0.25
aF0.25
aF0.25
aF0.25
aas((F0.25
F0.75
g75
tp1374
g27
I3
tp1375
(lp1376
(lp1377
g33
ag21
ag18
ag20
aa(lp1378
F0.25
aF0.25
aF0.25
aF0.25
aas((F1.75
F0.75
g64
tp1379
g27
I2
tp1380
(lp1381
(lp1382
g20
ag16
ag33
ag18
ag21
aa(lp1383
F0.2
aF0.2
aF0.2
aF0.2
aF0.2
aas((F1.25
F1.25
g64
tp1384
g27
I2
tp1385
(lp1386
(lp1387
g16
ag18
ag33
ag20
ag21
aa(lp1388
F0.2
aF0.2
aF0.2
aF0.2
aF0.2
aas((F0.25
F1.25
g75
tp1389
g722
I3
tp1390
(lp1391
(lp1392
g33
ag21
ag18
ag20
aa(lp1393
F0.0
aF0.0
aF0.0
aF1.0
aas(g111
g27
I3
tp1394
(lp1395
(lp1396
g20
ag16
ag18
ag33
ag21
aa(lp1397
F0.0
aF1.0
aF0.0
aF0.0
aF0.0
aas((F0.75
F0.25
g3
tp1398
g27
I3
tp1399
(lp1400
(lp1401
g20
ag33
ag18
ag21
aa(lp1402
F1.0
aF0.0
aF0.0
aF0.0
aas((F1.25
F0.75
g23
tp1403
g27
I4
tp1404
(lp1405
(lp1406
g16
ag18
ag33
ag20
ag21
aa(lp1407
F0.2
aF0.2
aF0.2
aF0.2
aF0.2
aas((F0.75
F0.75
g75
tp1408
g27
I2
tp1409
(lp1410
(lp1411
g16
ag33
ag18
ag20
ag21
aa(lp1412
F1.0
aF0.0
aF0.0
aF0.0
aF0.0
aas(g305
g27
I2
tp1413
(lp1414
(lp1415
g16
ag18
ag21
ag20
ag33
aa(lp1416
F0.0
aF0.0
aF0.0
aF0.0
aF1.0
aas((F1.25
F0.25
g3
tp1417
g27
I3
tp1418
(lp1419
(lp1420
g20
ag33
ag18
ag21
aa(lp1421
F1.0
aF0.0
aF0.0
aF0.0
aas(g573
g722
I3
tp1422
(lp1423
(lp1424
g18
ag21
ag20
ag33
aa(lp1425
F0.25
aF0.25
aF0.25
aF0.25
aas((F0.75
F0.25
g23
tp1426
g27
I3
tp1427
(lp1428
(lp1429
g16
ag18
ag20
ag21
aa(lp1430
F0.0
aF0.0
aF0.0
aF1.0
aas((F1.75
F1.25
g3
tp1431
g27
I4
tp1432
(lp1433
(lp1434
g16
ag18
ag20
ag21
aa(lp1435
F0.0
aF0.0
aF1.0
aF0.0
aas(g690
g27
I3
tp1436
(lp1437
(lp1438
g18
ag33
ag20
ag21
aa(lp1439
F0.25
aF0.25
aF0.25
aF0.25
aas((F0.25
F1.25
g3
tp1440
g722
I2
tp1441
(lp1442
(lp1443
g16
ag18
ag20
ag21
aa(lp1444
F1.0
aF0.0
aF0.0
aF0.0
aas(g226
g27
I2
tp1445
(lp1446
(lp1447
g16
ag18
ag33
ag20
ag21
aa(lp1448
F0.2
aF0.2
aF0.2
aF0.2
aF0.2
aas((F1.75
F1.25
g64
tp1449
g27
I4
tp1450
(lp1451
(lp1452
g16
ag18
ag33
ag20
ag21
aa(lp1453
F1.0
aF0.0
aF0.0
aF0.0
aF0.0
aas(g639
g27
I6
tp1454
(lp1455
(lp1456
g16
ag18
ag21
ag20
ag33
aa(lp1457
F0.2
aF0.2
aF0.2
aF0.2
aF0.2
aas((F0.25
F0.75
g23
tp1458
g27
I2
tp1459
(lp1460
(lp1461
g16
ag33
ag18
ag20
ag21
aa(lp1462
F1.0
aF0.0
aF0.0
aF0.0
aF0.0
aas(g221
g27
I2
tp1463
(lp1464
(lp1465
g16
ag18
ag21
ag20
ag33
aa(lp1466
F1.0
aF0.0
aF0.0
aF0.0
aF0.0
aas((F1.75
F0.75
g75
tp1467
g27
I2
tp1468
(lp1469
(lp1470
g16
ag33
ag18
ag20
ag21
aa(lp1471
F0.0
aF0.0
aF0.0
aF1.0
aF0.0
aas(g251
g722
I4
tp1472
(lp1473
(lp1474
g16
ag18
ag20
ag21
aa(lp1475
F0.25
aF0.25
aF0.25
aF0.25
aas((F0.25
F1.25
g64
tp1476
g722
I4
tp1477
(lp1478
(lp1479
g16
ag18
ag20
ag21
aa(lp1480
F0.25
aF0.25
aF0.25
aF0.25
aas((F1.25
F0.25
g75
tp1481
g27
I2
tp1482
(lp1483
(lp1484
g16
ag33
ag18
ag20
ag21
aa(lp1485
F1.0
aF0.0
aF0.0
aF0.0
aF0.0
aas((F1.75
F0.25
g3
tp1486
g27
I3
tp1487
(lp1488
(lp1489
g20
ag33
ag18
ag21
aa(lp1490
F1.0
aF0.0
aF0.0
aF0.0
aas((F2.25
F0.75
g75
tp1491
g27
I4
tp1492
(lp1493
(lp1494
g16
ag18
ag20
ag21
aa(lp1495
F0.25
aF0.25
aF0.25
aF0.25
aas((F1.75
F1.25
g23
tp1496
g27
I3
tp1497
(lp1498
(lp1499
g18
ag33
ag20
ag21
aa(lp1500
F0.25
aF0.25
aF0.25
aF0.25
aas((F2.25
F1.25
g3
tp1501
g875
I3
tp1502
(lp1503
(lp1504
g16
ag18
ag20
ag21
aa(lp1505
F1.0
aF0.0
aF0.0
aF0.0
aas(g111
g27
I4
tp1506
(lp1507
(lp1508
g20
ag16
ag18
ag33
ag21
aa(lp1509
F0.2
aF0.2
aF0.2
aF0.2
aF0.2
aas((F2.25
F0.75
g75
tp1510
g27
I3
tp1511
(lp1512
(lp1513
g16
ag18
ag20
ag21
aa(lp1514
F0.0
aF0.0
aF0.0
aF1.0
aas((F0.75
F0.75
g64
tp1515
g27
I2
tp1516
(lp1517
(lp1518
g20
ag16
ag33
ag18
ag21
aa(lp1519
F0.2
aF0.2
aF0.2
aF0.2
aF0.2
aas((F1.75
F0.25
g64
tp1520
g27
I2
tp1521
(lp1522
(lp1523
g16
ag18
ag33
ag20
ag21
aa(lp1524
F0.2
aF0.2
aF0.2
aF0.2
aF0.2
aas(g603
g675
I2
tp1525
(lp1526
(lp1527
g18
ag33
ag20
ag21
aa(lp1528
F0.25
aF0.25
aF0.25
aF0.25
aas((F2.25
F0.75
g3
tp1529
g27
I3
tp1530
(lp1531
(lp1532
g20
ag16
ag33
ag18
ag21
aa(lp1533
F0.0
aF1.0
aF0.0
aF0.0
aF0.0
aas((F1.25
F0.25
g64
tp1534
g27
I3
tp1535
(lp1536
(lp1537
g20
ag16
ag33
ag18
ag21
aa(lp1538
F0.0
aF1.0
aF0.0
aF0.0
aF0.0
aasaF59.38838549512674
aF0.0
aa(lp1539
g5
((lp1540
g654
ag659
ag1432
ag681
ag676
ag669
ag686
ag691
ag695
ag700
ag705
ag710
ag797
ag723
ag750
ag732
ag737
ag746
ag1309
ag755
ag961
ag765
ag769
ag1297
ag783
ag788
ag792
ag1105
ag801
ag1390
ag809
ag813
ag818
ag823
ag894
ag832
ag805
ag845
ag971
ag942
ag863
ag1222
ag868
ag876
ag1463
ag885
ag1012
ag827
ag898
ag902
ag907
ag911
ag915
ag728
ag859
ag919
ag924
ag778
ag933
ag966
ag854
ag951
ag956
ag1385
ag715
ag937
ag849
ag976
ag1168
ag986
ag990
ag994
ag1096
ag1007
ag890
ag1017
ag1195
ag998
ag836
ag1036
ag1040
ag774
ag1049
ag1053
ag1027
ag1057
ag1061
ag1065
ag1069
ag1073
ag1078
ag1082
ag1087
ag1092
ag742
ag1305
ag1101
ag946
ag1109
ag1113
ag1117
ag1122
ag1127
ag929
ag1136
ag1140
ag1145
ag1150
ag1045
ag1159
ag1163
ag981
ag1173
ag1022
ag1182
ag1186
ag1190
ag1178
ag1200
ag1204
ag1208
ag1213
ag1332
ag1227
ag1404
ag1236
ag1240
ag1131
ag1245
ag1250
ag1255
ag1259
ag1264
ag1268
ag1273
ag1277
ag1281
ag1285
ag1289
ag1293
ag1301
ag1450
ag1218
ag1314
ag1319
ag1323
ag1328
ag841
ag1337
ag1342
ag1347
ag1352
ag1357
ag1362
ag1366
ag1370
ag1375
ag1003
ag1380
ag760
ag1394
ag1399
ag1232
ag1409
ag1413
ag1487
ag1422
ag1427
ag1031
ag1436
ag1155
ag1441
ag1445
ag664
ag1454
ag1459
ag880
ag1468
ag1472
ag1477
ag1482
ag1418
ag1492
ag1497
ag1502
ag1506
ag1511
ag1516
ag1521
ag1525
ag1530
ag1535
atp1541
Rp1542
ac__builtin__
set
p1543
((lp1544
(g146
g10
I6
tp1545
a(g191
g10
I6
tp1546
a(g126
g27
I6
tp1547
a((F1.75
F0.75
g3
tp1548
g27
I6
tp1549
a((F1.75
F0.75
g64
tp1550
g27
I6
tp1551
a((F2.25
F0.75
g23
tp1552
g27
I6
tp1553
a(g1449
g27
I6
tp1554
a(g320
g10
I6
tp1555
a((F2.25
F0.75
g3
tp1556
g27
I6
tp1557
a(g858
g27
I6
tp1558
a(g1467
g27
I6
tp1559
a(g646
g10
I6
tp1560
atp1561
Rp1562
ag1543
((lp1563
g11
ag28
ag413
ag45
ag77
ag247
ag122
ag271
ag535
ag232
ag92
ag152
ag102
ag107
ag112
ag117
ag490
ag127
ag301
ag97
ag132
ag137
ag142
ag147
ag242
ag157
ag162
ag167
ag172
ag446
ag177
ag589
ag182
ag192
ag442
ag261
ag207
ag212
ag383
ag87
ag227
ag545
ag237
ag364
ag555
ag60
ag217
ag256
ag432
ag202
ag266
ag276
ag374
ag505
ag286
ag291
ag296
ag50
ag306
ag311
ag316
ag330
ag335
ag321
ag540
ag344
ag437
ag359
ag560
ag369
ag354
ag378
ag471
ag71
ag388
ag393
ag66
ag619
ag36
ag418
ag422
ag339
ag398
ag187
ag197
ag485
ag584
ag456
ag461
ag466
ag476
ag480
ag55
ag403
ag614
ag281
ag510
ag515
ag520
ag525
ag500
ag550
ag349
ag222
ag451
ag325
ag530
ag564
ag569
ag574
ag579
ag427
ag82
ag594
ag599
ag604
ag609
ag495
ag408
ag624
atp1564
Rp1565
ag1543
((lp1566
(g121
g5
((lp1567
S'obstacle'
p1568
aS'low'
p1569
atp1570
Rp1571
I3
tp1572
a(g504
g1571
I0
tp1573
a(g290
g255
I5
tp1574
a(g436
g27
I5
tp1575
a(g436
g1571
I2
tp1576
a(g928
g27
I5
tp1577
a(g504
g27
I5
tp1578
a(g514
g10
I5
tp1579
a(g81
g1571
I1
tp1580
a((F0.75
F1.25
g3
tp1581
g27
I5
tp1582
a(g176
g44
I5
tp1583
a(g131
g27
I5
tp1584
a(g504
g1571
I2
tp1585
a((F1.25
F1.25
g23
tp1586
g27
I5
tp1587
a(g358
g27
I5
tp1588
a(g216
g27
I5
tp1589
a(g504
g1571
I3
tp1590
a(g246
g1571
I1
tp1591
a((F0.75
F0.25
g3
tp1592
g27
I5
tp1593
a(g320
g10
I5
tp1594
a(g941
g27
I5
tp1595
a(g1496
g27
I5
tp1596
a(g121
g1571
I1
tp1597
a(g431
g1571
I0
tp1598
a(g568
g27
I5
tp1599
a((F1.75
F1.25
g3
tp1600
g27
I5
tp1601
a(g121
g1571
I4
tp1602
a(g504
g1571
I5
tp1603
a(g504
g1571
I4
tp1604
a(g431
g1571
I3
tp1605
a(g407
g1571
I1
tp1606
a(g1361
g27
I5
tp1607
a(g121
g1571
I5
tp1608
a((F2.25
F0.25
g64
tp1609
g44
I5
tp1610
a(g436
g1571
I4
tp1611
a(g246
g1571
I2
tp1612
a(g121
g1571
I0
tp1613
a(g156
g27
I5
tp1614
a((F0.75
F0.75
g75
tp1615
g27
I5
tp1616
a(g1586
g1571
I5
tp1617
a((F1.25
F0.75
g3
tp1618
g27
I5
tp1619
a(g201
g27
I5
tp1620
a(g141
g44
I5
tp1621
a(g246
g1571
I4
tp1622
a(g417
g27
I5
tp1623
a((F1.75
F1.25
g75
tp1624
g27
I5
tp1625
a((F2.25
F0.75
g3
tp1626
g27
I5
tp1627
a((F1.25
F0.75
g75
tp1628
g27
I5
tp1629
a(g305
g27
I5
tp1630
a(g397
g27
I5
tp1631
a(g1121
g27
I5
tp1632
a(g436
g1571
I5
tp1633
a(g101
g27
I5
tp1634
a((F0.75
F0.75
g3
tp1635
g27
I5
tp1636
a(g436
g1571
I0
tp1637
a((F2.25
F0.75
g23
tp1638
g27
I5
tp1639
a(g265
g27
I5
tp1640
a(g573
g255
I5
tp1641
a(g146
g10
I5
tp1642
a(g1263
g27
I5
tp1643
a(g280
g27
I5
tp1644
a(g436
g1571
I3
tp1645
a(g49
g27
I5
tp1646
a(g714
g27
I5
tp1647
a(g529
g27
I5
tp1648
a(g206
g27
I5
tp1649
a((F1.75
F0.75
g64
tp1650
g27
I5
tp1651
a(g593
g255
I5
tp1652
a(g1515
g27
I5
tp1653
a(g402
g10
I5
tp1654
a(g86
g27
I5
tp1655
a(g544
g255
I5
tp1656
a(g126
g27
I5
tp1657
a((F1.25
F0.75
g64
tp1658
g27
I5
tp1659
a(g236
g27
I5
tp1660
a(g65
g27
I5
tp1661
a(g1486
g27
I5
tp1662
a(g260
g27
I5
tp1663
a(g450
g27
I5
tp1664
a(g613
g27
I5
tp1665
a(g1520
g27
I5
tp1666
a(g121
g1571
I2
tp1667
a(g40
g44
I5
tp1668
a(g121
g27
I5
tp1669
atp1670
Rp1671
aa(dp1672
g1572
(lp1673
(lp1674
g16
ag18
ag20
ag21
aa(lp1675
I0
aI1
aI0
aI0
aasg1573
(lp1676
(lp1677
g16
ag18
ag33
ag20
ag21
aa(lp1678
I0
aI1
aI0
aI0
aI0
aasg1574
(lp1679
(lp1680
g16
ag18
ag20
ag21
aa(lp1681
F0.25
aF0.25
aF0.25
aF0.25
aasg1611
(lp1682
(lp1683
g16
ag18
ag33
ag20
ag21
aa(lp1684
I0
aI1
aI0
aI0
aI0
aasg1613
(lp1685
(lp1686
g16
ag18
ag20
ag21
aa(lp1687
I0
aI1
aI0
aI0
aasg1606
(lp1688
(lp1689
g16
ag18
ag33
ag20
ag21
aa(lp1690
I0
aI1
aI0
aI0
aI0
aasg1579
(lp1691
(lp1692
g16
ag18
ag20
ag21
aa(lp1693
F0.25
aF0.25
aF0.25
aF0.25
aasg1580
(lp1694
(lp1695
g16
ag18
ag33
ag20
ag21
aa(lp1696
I0
aI1
aI0
aI0
aI0
aasg1593
(lp1697
(lp1698
g20
ag33
ag18
ag21
aa(lp1699
F0.25
aF0.25
aF0.25
aF0.25
aasg1585
(lp1700
(lp1701
g16
ag18
ag33
ag20
ag21
aa(lp1702
I0
aI1
aI0
aI0
aI0
aasg1631
(lp1703
(lp1704
g16
ag33
ag18
ag20
ag21
aa(lp1705
F0.2
aF0.2
aF0.2
aF0.2
aF0.2
aasg1656
(lp1706
(lp1707
g16
ag18
ag20
ag21
aa(lp1708
F0.25
aF0.25
aF0.25
aF0.25
aasg1669
(lp1709
(lp1710
g16
ag18
ag20
ag21
aa(lp1711
F0.25
aF0.25
aF0.25
aF0.25
aasg1632
(lp1712
(lp1713
g33
ag21
ag18
ag20
aa(lp1714
F0.25
aF0.25
aF0.25
aF0.25
aasg1590
(lp1715
(lp1716
g16
ag18
ag33
ag20
ag21
aa(lp1717
I0
aI1
aI0
aI0
aI0
aasg1591
(lp1718
(lp1719
g18
ag33
ag20
ag21
aa(lp1720
I1
aI0
aI0
aI0
aasg1594
(lp1721
(lp1722
g16
ag18
ag20
ag21
aa(lp1723
F0.25
aF0.25
aF0.25
aF0.25
aasg1655
(lp1724
(lp1725
g20
ag16
ag33
ag18
ag21
aa(lp1726
F0.2
aF0.2
aF0.2
aF0.2
aF0.2
aasg1604
(lp1727
(lp1728
g16
ag18
ag33
ag20
ag21
aa(lp1729
I0
aI1
aI0
aI0
aI0
aasg1597
(lp1730
(lp1731
g16
ag18
ag20
ag21
aa(lp1732
I0
aI1
aI0
aI0
aasg1598
(lp1733
(lp1734
g18
ag33
ag20
ag21
aa(lp1735
I1
aI0
aI0
aI0
aasg1601
(lp1736
(lp1737
g16
ag18
ag20
ag21
aa(lp1738
F0.25
aF0.25
aF0.25
aF0.25
aasg1602
(lp1739
(lp1740
g16
ag18
ag20
ag21
aa(lp1741
I0
aI1
aI0
aI0
aasg1603
(lp1742
(lp1743
g16
ag18
ag33
ag20
ag21
aa(lp1744
F0.2
aF0.2
aF0.2
aF0.2
aF0.2
aasg1605
(lp1745
(lp1746
g18
ag33
ag20
ag21
aa(lp1747
I1
aI0
aI0
aI0
aasg1664
(lp1748
(lp1749
g16
ag18
ag20
ag21
aa(lp1750
F0.25
aF0.25
aF0.25
aF0.25
aasg1608
(lp1751
(lp1752
g16
ag18
ag20
ag21
aa(lp1753
F0.25
aF0.25
aF0.25
aF0.25
aasg1666
(lp1754
(lp1755
g16
ag18
ag33
ag20
ag21
aa(lp1756
F0.2
aF0.2
aF0.2
aF0.2
aF0.2
aasg1662
(lp1757
(lp1758
g20
ag33
ag18
ag21
aa(lp1759
F0.25
aF0.25
aF0.25
aF0.25
aasg1612
(lp1760
(lp1761
g18
ag33
ag20
ag21
aa(lp1762
I1
aI0
aI0
aI0
aasg1599
(lp1763
(lp1764
g33
ag21
ag18
ag20
aa(lp1765
F0.25
aF0.25
aF0.25
aF0.25
aasg1668
(lp1766
(lp1767
g16
ag18
ag20
ag21
aa(lp1768
F0.25
aF0.25
aF0.25
aF0.25
aasg1582
(lp1769
(lp1770
g16
ag18
ag20
ag21
aa(lp1771
F0.25
aF0.25
aF0.25
aF0.25
aasg1617
(lp1772
(lp1773
g18
ag33
ag20
ag21
aa(lp1774
F0.25
aF0.25
aF0.25
aF0.25
aasg1651
(lp1775
(lp1776
g20
ag16
ag33
ag18
ag21
aa(lp1777
F0.2
aF0.2
aF0.2
aF0.2
aF0.2
aasg1643
(lp1778
(lp1779
g16
ag18
ag21
ag20
ag33
aa(lp1780
F0.2
aF0.2
aF0.2
aF0.2
aF0.2
aasg1619
(lp1781
(lp1782
g20
ag16
ag33
ag18
ag21
aa(lp1783
F0.2
aF0.2
aF0.2
aF0.2
aF0.2
aasg1583
(lp1784
(lp1785
g16
ag18
ag20
ag21
aa(lp1786
F0.25
aF0.25
aF0.25
aF0.25
aasg1622
(lp1787
(lp1788
g18
ag33
ag20
ag21
aa(lp1789
I1
aI0
aI0
aI0
aasg1623
(lp1790
(lp1791
g16
ag33
ag18
ag20
ag21
aa(lp1792
F0.2
aF0.2
aF0.2
aF0.2
aF0.2
aasg1641
(lp1793
(lp1794
g18
ag21
ag20
ag33
aa(lp1795
F0.25
aF0.25
aF0.25
aF0.25
aasg1595
(lp1796
(lp1797
g16
ag33
ag18
ag20
ag21
aa(lp1798
F0.2
aF0.2
aF0.2
aF0.2
aF0.2
aasg1630
(lp1799
(lp1800
g16
ag18
ag21
ag20
ag33
aa(lp1801
F0.2
aF0.2
aF0.2
aF0.2
aF0.2
aasg1596
(lp1802
(lp1803
g18
ag33
ag20
ag21
aa(lp1804
F0.25
aF0.25
aF0.25
aF0.25
aasg1665
(lp1805
(lp1806
g20
ag16
ag33
ag18
ag21
aa(lp1807
F0.2
aF0.2
aF0.2
aF0.2
aF0.2
aasg1584
(lp1808
(lp1809
g18
ag33
ag20
ag21
aa(lp1810
F0.25
aF0.25
aF0.25
aF0.25
aasg1633
(lp1811
(lp1812
g16
ag18
ag33
ag20
ag21
aa(lp1813
F0.2
aF0.2
aF0.2
aF0.2
aF0.2
aasg1616
(lp1814
(lp1815
g16
ag33
ag18
ag20
ag21
aa(lp1816
F0.2
aF0.2
aF0.2
aF0.2
aF0.2
aasg1634
(lp1817
(lp1818
g16
ag18
ag20
ag21
aa(lp1819
F0.25
aF0.25
aF0.25
aF0.25
aasg1636
(lp1820
(lp1821
g20
ag16
ag18
ag33
ag21
aa(lp1822
F0.2
aF0.2
aF0.2
aF0.2
aF0.2
aasg1577
(lp1823
(lp1824
g16
ag18
ag20
ag21
aa(lp1825
F0.25
aF0.25
aF0.25
aF0.25
aasg1576
(lp1826
(lp1827
g16
ag18
ag33
ag20
ag21
aa(lp1828
I0
aI1
aI0
aI0
aI0
aasg1660
(lp1829
(lp1830
g16
ag33
ag18
ag20
ag21
aa(lp1831
F0.2
aF0.2
aF0.2
aF0.2
aF0.2
aasg1610
(lp1832
(lp1833
g18
ag33
ag20
ag21
aa(lp1834
F0.25
aF0.25
aF0.25
aF0.25
aasg1629
(lp1835
(lp1836
g16
ag33
ag18
ag20
ag21
aa(lp1837
F0.2
aF0.2
aF0.2
aF0.2
aF0.2
aasg1575
(lp1838
(lp1839
g16
ag18
ag33
ag20
ag21
aa(lp1840
F0.2
aF0.2
aF0.2
aF0.2
aF0.2
aasg1644
(lp1841
(lp1842
g16
ag18
ag33
ag20
ag21
aa(lp1843
F0.2
aF0.2
aF0.2
aF0.2
aF0.2
aasg1588
(lp1844
(lp1845
g16
ag33
ag18
ag20
ag21
aa(lp1846
F0.2
aF0.2
aF0.2
aF0.2
aF0.2
aasg1646
(lp1847
(lp1848
g16
ag18
ag33
ag20
ag21
aa(lp1849
F0.2
aF0.2
aF0.2
aF0.2
aF0.2
aasg1607
(lp1850
(lp1851
g20
ag16
ag33
ag18
ag21
aa(lp1852
F0.2
aF0.2
aF0.2
aF0.2
aF0.2
aasg1621
(lp1853
(lp1854
g20
ag33
ag18
ag21
aa(lp1855
F0.25
aF0.25
aF0.25
aF0.25
aasg1627
(lp1856
(lp1857
g20
ag16
ag33
ag18
ag21
aa(lp1858
F0.2
aF0.2
aF0.2
aF0.2
aF0.2
aasg1625
(lp1859
(lp1860
g16
ag18
ag21
ag20
ag33
aa(lp1861
F0.2
aF0.2
aF0.2
aF0.2
aF0.2
aasg1578
(lp1862
(lp1863
g16
ag18
ag33
ag20
ag21
aa(lp1864
F0.2
aF0.2
aF0.2
aF0.2
aF0.2
aasg1652
(lp1865
(lp1866
g33
ag21
ag18
ag20
aa(lp1867
F0.25
aF0.25
aF0.25
aF0.25
aasg1653
(lp1868
(lp1869
g20
ag16
ag33
ag18
ag21
aa(lp1870
F0.2
aF0.2
aF0.2
aF0.2
aF0.2
aasg1659
(lp1871
(lp1872
g20
ag16
ag33
ag18
ag21
aa(lp1873
F0.2
aF0.2
aF0.2
aF0.2
aF0.2
aasg1649
(lp1874
(lp1875
g16
ag18
ag20
ag21
aa(lp1876
F0.25
aF0.25
aF0.25
aF0.25
aasg1589
(lp1877
(lp1878
g20
ag33
ag18
ag21
aa(lp1879
F0.25
aF0.25
aF0.25
aF0.25
aasg1637
(lp1880
(lp1881
g16
ag18
ag33
ag20
ag21
aa(lp1882
I0
aI1
aI0
aI0
aI0
aasg1657
(lp1883
(lp1884
g16
ag18
ag33
ag20
ag21
aa(lp1885
F0.2
aF0.2
aF0.2
aF0.2
aF0.2
aasg1663
(lp1886
(lp1887
g16
ag18
ag20
ag21
aa(lp1888
F0.25
aF0.25
aF0.25
aF0.25
aasg1645
(lp1889
(lp1890
g16
ag18
ag33
ag20
ag21
aa(lp1891
I0
aI1
aI0
aI0
aI0
aasg1614
(lp1892
(lp1893
g16
ag18
ag20
ag21
aa(lp1894
F0.25
aF0.25
aF0.25
aF0.25
aasg1661
(lp1895
(lp1896
g16
ag18
ag33
ag20
ag21
aa(lp1897
F0.2
aF0.2
aF0.2
aF0.2
aF0.2
aasg1647
(lp1898
(lp1899
g16
ag18
ag20
ag21
aa(lp1900
F0.25
aF0.25
aF0.25
aF0.25
aasg1648
(lp1901
(lp1902
g20
ag33
ag18
ag21
aa(lp1903
F0.25
aF0.25
aF0.25
aF0.25
aasg1620
(lp1904
(lp1905
g16
ag33
ag18
ag20
ag21
aa(lp1906
F0.2
aF0.2
aF0.2
aF0.2
aF0.2
aasg1587
(lp1907
(lp1908
g18
ag33
ag20
ag21
aa(lp1909
F0.25
aF0.25
aF0.25
aF0.25
aasg1639
(lp1910
(lp1911
g16
ag33
ag18
ag20
ag21
aa(lp1912
F0.2
aF0.2
aF0.2
aF0.2
aF0.2
aasg1642
(lp1913
(lp1914
g33
ag21
ag18
ag20
aa(lp1915
F0.25
aF0.25
aF0.25
aF0.25
aasg1667
(lp1916
(lp1917
g16
ag18
ag20
ag21
aa(lp1918
I0
aI1
aI0
aI0
aasg1654
(lp1919
(lp1920
g20
ag33
ag18
ag21
aa(lp1921
F0.25
aF0.25
aF0.25
aF0.25
aasg1640
(lp1922
(lp1923
g18
ag33
ag20
ag21
aa(lp1924
F0.25
aF0.25
aF0.25
aF0.25
aasa.