(dp0
((F1.0
F5.0
S'E'
p1
tp2
(F3.0
F3.0
g1
tp3
tp4
(dp5
(S'F'
p6
S'R'
p7
tp8
(lp9
F0.1
aI2
ass((F3.0
F7.0
g1
tp10
(F1.0
F7.0
g1
tp11
tp12
(dp13
(S'B'
p14
S'K'
p15
tp16
(lp17
F0.7
aI4
ass((F3.0
F1.0
S'S'
p18
tp19
(F3.0
F1.0
S'N'
p20
tp21
tp22
(dp23
(S'T'
p24
S'L'
p25
tp26
(lp27
F0.05
aI3
as(g24
g7
tp28
(lp29
F0.05
aI3
ass((F1.0
F3.0
g18
tp30
(F1.0
F3.0
g18
tp31
tp32
(dp33
(g18
g24
tp34
(lp35
F0.99
aI1
asg26
(lp36
F0.05
aI3
asg28
(lp37
F0.05
aI3
ass((F5.0
F5.0
g1
tp38
(F3.0
F7.0
g1
tp39
tp40
(dp41
g16
(lp42
F0.15
aI4
ass((F1.0
F9.0
g20
tp43
(F1.0
F9.0
g1
tp44
tp45
(dp46
g34
(lp47
F0.005
aI1
asg28
(lp48
F0.9
aI3
ass((F9.0
F9.0
g20
tp49
(F7.0
F7.0
g20
tp50
tp51
(dp52
g16
(lp53
F0.225
aI4
ass((F5.0
F9.0
g18
tp54
(F7.0
F7.0
g18
tp55
tp56
(dp57
g8
(lp58
F0.1
aI2
ass((F9.0
F1.0
S'W'
p59
tp60
(F7.0
F3.0
g59
tp61
tp62
(dp63
g8
(lp64
F0.15
aI2
ass((F9.0
F7.0
g59
tp65
(F9.0
F7.0
g18
tp66
tp67
(dp68
g34
(lp69
F0.005
aI1
asg26
(lp70
F0.9
aI3
ass((F3.0
F1.0
g59
tp71
(F5.0
F1.0
g59
tp72
tp73
(dp74
g16
(lp75
F0.7749999999999999
aI4
ass((F5.0
F3.0
g18
tp76
(F5.0
F5.0
g18
tp77
tp78
(dp79
g16
(lp80
F0.7
aI4
ass((F5.0
F1.0
g18
tp81
(F5.0
F1.0
g18
tp82
tp83
(dp84
g34
(lp85
F0.99
aI1
asg26
(lp86
F0.05
aI3
asg28
(lp87
F0.05
aI3
ass((F7.0
F9.0
g59
tp88
(F7.0
F9.0
g18
tp89
tp90
(dp91
g34
(lp92
F0.005
aI1
asg26
(lp93
F0.9
aI3
ass((F3.0
F1.0
g1
tp94
(F1.0
F3.0
g1
tp95
tp96
(dp97
g16
(lp98
F0.225
aI4
ass((F9.0
F7.0
g18
tp99
(F9.0
F9.0
g18
tp100
tp101
(dp102
g16
(lp103
F0.7749999999999999
aI4
ass((F3.0
F5.0
g18
tp104
(F3.0
F5.0
g1
tp105
tp106
(dp107
g34
(lp108
F0.005
aI1
asg26
(lp109
F0.9
aI3
ass((F7.0
F7.0
g59
tp110
(F7.0
F7.0
g20
tp111
tp112
(dp113
g34
(lp114
F0.005
aI1
asg28
(lp115
F0.9
aI3
ass((F5.0
F7.0
g18
tp116
(F5.0
F7.0
g59
tp117
tp118
(dp119
g34
(lp120
F0.005
aI1
asg28
(lp121
F0.9
aI3
ass((F5.0
F7.0
g20
tp122
(F5.0
F7.0
g18
tp123
tp124
(dp125
g26
(lp126
F0.05
aI3
asg28
(lp127
F0.05
aI3
ass((F9.0
F1.0
g18
tp128
(F9.0
F1.0
g1
tp129
tp130
(dp131
g34
(lp132
F0.005
aI1
asg26
(lp133
F0.9
aI3
ass((F5.0
F5.0
g20
tp134
(F5.0
F3.0
g20
tp135
tp136
(dp137
g16
(lp138
F0.7
aI4
ass((F3.0
F5.0
g20
tp139
(F5.0
F3.0
g20
tp140
tp141
(dp142
g16
(lp143
F0.15
aI4
ass((F7.0
F7.0
g18
tp144
(F7.0
F9.0
g18
tp145
tp146
(dp147
g16
(lp148
F0.7
aI4
ass((F5.0
F7.0
g59
tp149
(F5.0
F7.0
g18
tp150
tp151
(dp152
g34
(lp153
F0.005
aI1
asg26
(lp154
F0.9
aI3
ass((F7.0
F3.0
g59
tp155
(F5.0
F5.0
g59
tp156
tp157
(dp158
g8
(lp159
F0.1
aI2
ass((F1.0
F1.0
g20
tp160
(F1.0
F1.0
g20
tp161
tp162
(dp163
g34
(lp164
F0.99
aI1
asg26
(lp165
F0.05
aI3
asg28
(lp166
F0.05
aI3
ass(g65
(F7.0
F9.0
g59
tp167
tp168
(dp169
g8
(lp170
F0.1
aI2
ass((F1.0
F3.0
g20
tp171
(F1.0
F3.0
g20
tp172
tp173
(dp174
g34
(lp175
F0.99
aI1
asg26
(lp176
F0.05
aI3
asg28
(lp177
F0.05
aI3
ass((F5.0
F5.0
g18
tp178
(F7.0
F3.0
g18
tp179
tp180
(dp181
g8
(lp182
F0.1
aI2
ass(g116
(F5.0
F7.0
g1
tp183
tp184
(dp185
g34
(lp186
F0.005
aI1
asg26
(lp187
F0.9
aI3
ass(g10
(F3.0
F7.0
g1
tp188
tp189
(dp190
g34
(lp191
F0.99
aI1
asg26
(lp192
F0.05
aI3
asg28
(lp193
F0.05
aI3
ass((F9.0
F3.0
g20
tp194
(F7.0
F5.0
g20
tp195
tp196
(dp197
g8
(lp198
F0.15
aI2
ass((F3.0
F7.0
g18
tp199
(F3.0
F7.0
g20
tp200
tp201
(dp202
g26
(lp203
F0.05
aI3
asg28
(lp204
F0.05
aI3
ass((F1.0
F1.0
g1
tp205
(F1.0
F1.0
g20
tp206
tp207
(dp208
g34
(lp209
F0.005
aI1
asg26
(lp210
F0.9
aI3
ass((F1.0
F9.0
g18
tp211
(F1.0
F9.0
g59
tp212
tp213
(dp214
g34
(lp215
F0.005
aI1
asg28
(lp216
F0.9
aI3
ass((F9.0
F5.0
g59
tp217
(F7.0
F3.0
g59
tp218
tp219
(dp220
g8
(lp221
F0.1
aI2
ass((F3.0
F3.0
g18
tp222
(F5.0
F1.0
g18
tp223
tp224
(dp225
g8
(lp226
F0.1
aI2
ass((F3.0
F9.0
g59
tp227
(F3.0
F9.0
g18
tp228
tp229
(dp230
g34
(lp231
F0.005
aI1
asg26
(lp232
F0.9
aI3
ass(g38
(F7.0
F7.0
g1
tp233
tp234
(dp235
g8
(lp236
F0.1
aI2
ass(g171
(F1.0
F3.0
g59
tp237
tp238
(dp239
g34
(lp240
F0.005
aI1
asg26
(lp241
F0.9
aI3
ass((F7.0
F9.0
g1
tp242
(F7.0
F9.0
g59
tp243
tp244
(dp245
g26
(lp246
F0.05
aI3
asg28
(lp247
F0.05
aI3
ass((F7.0
F5.0
g20
tp248
(F7.0
F5.0
g20
tp249
tp250
(dp251
g34
(lp252
F0.99
aI1
asg26
(lp253
F0.05
aI3
asg28
(lp254
F0.05
aI3
ass((F5.0
F1.0
g59
tp255
(F5.0
F1.0
g59
tp256
tp257
(dp258
g34
(lp259
F0.99
aI1
asg26
(lp260
F0.05
aI3
asg28
(lp261
F0.05
aI3
ass((F3.0
F7.0
g59
tp262
(F3.0
F7.0
g1
tp263
tp264
(dp265
g26
(lp266
F0.05
aI3
asg28
(lp267
F0.05
aI3
ass((F9.0
F7.0
g1
tp268
(F9.0
F7.0
g18
tp269
tp270
(dp271
g34
(lp272
F0.005
aI1
asg28
(lp273
F0.9
aI3
ass((F7.0
F7.0
g1
tp274
(F7.0
F7.0
g1
tp275
tp276
(dp277
g34
(lp278
F0.99
aI1
asg26
(lp279
F0.05
aI3
asg28
(lp280
F0.05
aI3
ass((F5.0
F3.0
g59
tp281
(F7.0
F5.0
g59
tp282
tp283
(dp284
g16
(lp285
F0.15
aI4
ass((F7.0
F1.0
g20
tp286
(F7.0
F1.0
g20
tp287
tp288
(dp289
g34
(lp290
F0.99
aI1
asg26
(lp291
F0.05
aI3
asg28
(lp292
F0.05
aI3
ass(g194
(F9.0
F5.0
g20
tp293
tp294
(dp295
g8
(lp296
F0.8500000000000001
aI2
ass((F1.0
F5.0
g20
tp297
(F3.0
F7.0
g20
tp298
tp299
(dp300
g8
(lp301
F0.15
aI2
ass(g217
(F9.0
F5.0
g20
tp302
tp303
(dp304
g34
(lp305
F0.005
aI1
asg28
(lp306
F0.9
aI3
ass((F1.0
F5.0
g59
tp307
(F1.0
F5.0
g59
tp308
tp309
(dp310
g34
(lp311
F0.99
aI1
asg26
(lp312
F0.05
aI3
asg28
(lp313
F0.05
aI3
ass(g248
(F9.0
F3.0
g20
tp314
tp315
(dp316
g16
(lp317
F0.15
aI4
ass(g149
(F3.0
F9.0
g59
tp318
tp319
(dp320
g8
(lp321
F0.1
aI2
ass(g248
(F7.0
F5.0
g1
tp322
tp323
(dp324
g34
(lp325
F0.005
aI1
asg28
(lp326
F0.9
aI3
ass((F3.0
F5.0
g59
tp327
(F1.0
F7.0
g59
tp328
tp329
(dp330
g8
(lp331
F0.1
aI2
ass((F7.0
F3.0
g20
tp332
(F7.0
F3.0
g1
tp333
tp334
(dp335
g34
(lp336
F0.005
aI1
asg28
(lp337
F0.9
aI3
ass(g297
(F1.0
F5.0
g20
tp338
tp339
(dp340
g34
(lp341
F0.99
aI1
asg26
(lp342
F0.05
aI3
asg28
(lp343
F0.05
aI3
ass(g99
(F9.0
F7.0
g59
tp344
tp345
(dp346
g34
(lp347
F0.005
aI1
asg28
(lp348
F0.9
aI3
ass(g76
(F5.0
F1.0
g18
tp349
tp350
(dp351
g8
(lp352
F0.8
aI2
ass((F5.0
F9.0
g20
tp353
(F7.0
F7.0
g20
tp354
tp355
(dp356
g16
(lp357
F0.15
aI4
ass(g274
(F7.0
F7.0
g59
tp358
tp359
(dp360
g26
(lp361
F0.05
aI3
asg28
(lp362
F0.05
aI3
ass((F3.0
F3.0
g20
tp363
(F3.0
F3.0
g18
tp364
tp365
(dp366
g26
(lp367
F0.05
aI3
asg28
(lp368
F0.05
aI3
ass(g222
(F3.0
F1.0
g18
tp369
tp370
(dp371
g8
(lp372
F0.8
aI2
ass(g30
(F1.0
F5.0
g18
tp373
tp374
(dp375
g16
(lp376
F0.7749999999999999
aI4
ass((F1.0
F3.0
g59
tp377
(F3.0
F3.0
g59
tp378
tp379
(dp380
g16
(lp381
F0.7
aI4
ass(g155
(F7.0
F3.0
g20
tp382
tp383
(dp384
g34
(lp385
F0.005
aI1
asg28
(lp386
F0.9
aI3
ass(g205
(F1.0
F1.0
g18
tp387
tp388
(dp389
g34
(lp390
F0.005
aI1
asg28
(lp391
F0.9
aI3
ass((F3.0
F9.0
g1
tp392
(F3.0
F9.0
g18
tp393
tp394
(dp395
g34
(lp396
F0.005
aI1
asg28
(lp397
F0.9
aI3
ass((F1.0
F7.0
g1
tp398
(F1.0
F7.0
g59
tp399
tp400
(dp401
g26
(lp402
F0.05
aI3
asg28
(lp403
F0.05
aI3
ass(g262
(F3.0
F7.0
g20
tp404
tp405
(dp406
g34
(lp407
F0.005
aI1
asg28
(lp408
F0.9
aI3
ass(g262
(F3.0
F7.0
g59
tp409
tp410
(dp411
g34
(lp412
F0.99
aI1
asg26
(lp413
F0.05
aI3
asg28
(lp414
F0.05
aI3
ass(g297
(F1.0
F5.0
g59
tp415
tp416
(dp417
g34
(lp418
F0.005
aI1
asg26
(lp419
F0.9
aI3
ass(g76
(F3.0
F1.0
g18
tp420
tp421
(dp422
g8
(lp423
F0.1
aI2
ass((F9.0
F3.0
g59
tp424
(F7.0
F1.0
g59
tp425
tp426
(dp427
g8
(lp428
F0.1
aI2
ass((F3.0
F1.0
g20
tp429
(F3.0
F1.0
g20
tp430
tp431
(dp432
g34
(lp433
F0.99
aI1
asg26
(lp434
F0.05
aI3
asg28
(lp435
F0.05
aI3
ass(g377
(F1.0
F3.0
g59
tp436
tp437
(dp438
g34
(lp439
F0.99
aI1
asg26
(lp440
F0.05
aI3
asg28
(lp441
F0.05
aI3
ass((F3.0
F7.0
g20
tp442
(F1.0
F9.0
g20
tp443
tp444
(dp445
g8
(lp446
F0.1
aI2
ass((F5.0
F9.0
g1
tp447
(F7.0
F9.0
g1
tp448
tp449
(dp450
g8
(lp451
F0.8500000000000001
aI2
ass((F7.0
F1.0
g18
tp452
(F5.0
F3.0
g18
tp453
tp454
(dp455
g16
(lp456
F0.15
aI4
ass(g81
(F3.0
F3.0
g18
tp457
tp458
(dp459
g16
(lp460
F0.15
aI4
ass((F1.0
F9.0
g1
tp461
(F1.0
F9.0
g1
tp462
tp463
(dp464
g34
(lp465
F0.99
aI1
asg26
(lp466
F0.05
aI3
asg28
(lp467
F0.05
aI3
ass((F1.0
F7.0
g59
tp468
(F1.0
F7.0
g1
tp469
tp470
(dp471
g26
(lp472
F0.05
aI3
asg28
(lp473
F0.05
aI3
ass(g110
(F5.0
F7.0
g59
tp474
tp475
(dp476
g8
(lp477
F0.8
aI2
ass(g392
(F5.0
F7.0
g1
tp478
tp479
(dp480
g8
(lp481
F0.15
aI2
ass(g327
(F3.0
F5.0
g20
tp482
tp483
(dp484
g34
(lp485
F0.005
aI1
asg28
(lp486
F0.9
aI3
ass(g217
(F7.0
F7.0
g59
tp487
tp488
(dp489
g8
(lp490
F0.1
aI2
ass((F7.0
F9.0
g18
tp491
(F7.0
F9.0
g18
tp492
tp493
(dp494
g34
(lp495
F0.99
aI1
asg26
(lp496
F0.05
aI3
asg28
(lp497
F0.05
aI3
ass(g255
(F5.0
F1.0
g18
tp498
tp499
(dp500
g34
(lp501
F0.005
aI1
asg26
(lp502
F0.9
aI3
ass(g222
(F3.0
F3.0
g59
tp503
tp504
(dp505
g34
(lp506
F0.005
aI1
asg28
(lp507
F0.9
aI3
ass(g43
(F3.0
F7.0
g20
tp508
tp509
(dp510
g16
(lp511
F0.225
aI4
ass(g468
(F3.0
F9.0
g59
tp512
tp513
(dp514
g16
(lp515
F0.15
aI4
ass((F1.0
F7.0
g20
tp516
(F1.0
F9.0
g20
tp517
tp518
(dp519
g8
(lp520
F0.8500000000000001
aI2
ass(g10
(F3.0
F7.0
g59
tp521
tp522
(dp523
g26
(lp524
F0.05
aI3
asg28
(lp525
F0.05
aI3
ass((F7.0
F3.0
g1
tp526
(F7.0
F3.0
g1
tp527
tp528
(dp529
g34
(lp530
F0.99
aI1
asg26
(lp531
F0.05
aI3
asg28
(lp532
F0.05
aI3
ass(g2
(F1.0
F5.0
g59
tp533
tp534
(dp535
g26
(lp536
F0.05
aI3
asg28
(lp537
F0.05
aI3
ass(g398
(F3.0
F9.0
g1
tp538
tp539
(dp540
g8
(lp541
F0.1
aI2
ass(g76
(F5.0
F3.0
g1
tp542
tp543
(dp544
g34
(lp545
F0.005
aI1
asg26
(lp546
F0.9
aI3
ass(g110
(F7.0
F7.0
g59
tp547
tp548
(dp549
g34
(lp550
F0.99
aI1
asg26
(lp551
F0.05
aI3
asg28
(lp552
F0.05
aI3
ass(g54
(F5.0
F9.0
g59
tp553
tp554
(dp555
g34
(lp556
F0.005
aI1
asg28
(lp557
F0.9
aI3
ass(g2
(F1.0
F5.0
g18
tp558
tp559
(dp560
g34
(lp561
F0.005
aI1
asg28
(lp562
F0.9
aI3
ass(g332
(F7.0
F3.0
g20
tp563
tp564
(dp565
g34
(lp566
F0.99
aI1
asg26
(lp567
F0.05
aI3
asg28
(lp568
F0.05
aI3
ass((F5.0
F1.0
g1
tp569
(F3.0
F1.0
g1
tp570
tp571
(dp572
g16
(lp573
F0.7749999999999999
aI4
ass((F9.0
F5.0
g20
tp574
(F7.0
F3.0
g20
tp575
tp576
(dp577
g16
(lp578
F0.225
aI4
ass(g76
(F5.0
F3.0
g20
tp579
tp580
(dp581
g26
(lp582
F0.05
aI3
asg28
(lp583
F0.05
aI3
ass((F7.0
F5.0
g1
tp584
(F7.0
F5.0
g59
tp585
tp586
(dp587
g26
(lp588
F0.05
aI3
asg28
(lp589
F0.05
aI3
ass(g104
(F5.0
F7.0
g18
tp590
tp591
(dp592
g16
(lp593
F0.15
aI4
ass((F1.0
F5.0
g18
tp594
(F1.0
F5.0
g18
tp595
tp596
(dp597
g34
(lp598
F0.99
aI1
asg26
(lp599
F0.05
aI3
asg28
(lp600
F0.05
aI3
ass((F9.0
F3.0
g1
tp601
(F9.0
F3.0
g20
tp602
tp603
(dp604
g34
(lp605
F0.005
aI1
asg26
(lp606
F0.9
aI3
ass((F9.0
F3.0
g18
tp607
(F7.0
F5.0
g18
tp608
tp609
(dp610
g16
(lp611
F0.225
aI4
ass((F9.0
F9.0
g18
tp612
(F7.0
F7.0
g18
tp613
tp614
(dp615
g8
(lp616
F0.15
aI2
ass(g227
(F3.0
F9.0
g20
tp617
tp618
(dp619
g34
(lp620
F0.005
aI1
asg28
(lp621
F0.9
aI3
ass((F7.0
F1.0
g59
tp622
(F7.0
F1.0
g18
tp623
tp624
(dp625
g34
(lp626
F0.005
aI1
asg26
(lp627
F0.9
aI3
ass(g429
(F3.0
F1.0
g18
tp628
tp629
(dp630
g26
(lp631
F0.05
aI3
asg28
(lp632
F0.05
aI3
ass(g516
(F3.0
F9.0
g20
tp633
tp634
(dp635
g8
(lp636
F0.15
aI2
ass(g363
(F3.0
F5.0
g20
tp637
tp638
(dp639
g8
(lp640
F0.8
aI2
ass((F7.0
F7.0
g20
tp641
(F7.0
F7.0
g1
tp642
tp643
(dp644
g34
(lp645
F0.005
aI1
asg28
(lp646
F0.9
aI3
ass((F1.0
F9.0
g59
tp647
(F1.0
F9.0
g18
tp648
tp649
(dp650
g34
(lp651
F0.005
aI1
asg26
(lp652
F0.9
aI3
ass(g286
(F9.0
F3.0
g20
tp653
tp654
(dp655
g8
(lp656
F0.1
aI2
ass(g392
(F1.0
F7.0
g1
tp657
tp658
(dp659
g16
(lp660
F0.225
aI4
ass(g88
(F5.0
F9.0
g59
tp661
tp662
(dp663
g8
(lp664
F0.8500000000000001
aI2
ass((F1.0
F7.0
g18
tp665
(F3.0
F9.0
g18
tp666
tp667
(dp668
g16
(lp669
F0.225
aI4
ass(g442
(F3.0
F7.0
g18
tp670
tp671
(dp672
g26
(lp673
F0.05
aI3
asg28
(lp674
F0.05
aI3
ass(g88
(F7.0
F9.0
g1
tp675
tp676
(dp677
g26
(lp678
F0.05
aI3
asg28
(lp679
F0.05
aI3
ass((F5.0
F3.0
g20
tp680
(F5.0
F3.0
g20
tp681
tp682
(dp683
g34
(lp684
F0.99
aI1
asg26
(lp685
F0.05
aI3
asg28
(lp686
F0.05
aI3
ass(g255
(F7.0
F1.0
g59
tp687
tp688
(dp689
g16
(lp690
F0.7749999999999999
aI4
ass(g205
(F3.0
F3.0
g1
tp691
tp692
(dp693
g8
(lp694
F0.15
aI2
ass(g116
(F5.0
F9.0
g18
tp695
tp696
(dp697
g16
(lp698
F0.7
aI4
ass(g122
(F5.0
F5.0
g20
tp699
tp700
(dp701
g16
(lp702
F0.7
aI4
ass(g139
(F3.0
F5.0
g1
tp703
tp704
(dp705
g34
(lp706
F0.005
aI1
asg28
(lp707
F0.9
aI3
ass(g307
(F1.0
F5.0
g18
tp708
tp709
(dp710
g34
(lp711
F0.005
aI1
asg26
(lp712
F0.9
aI3
ass(g353
(F5.0
F9.0
g18
tp713
tp714
(dp715
g26
(lp716
F0.05
aI3
asg28
(lp717
F0.05
aI3
ass((F5.0
F9.0
g59
tp718
(F5.0
F9.0
g18
tp719
tp720
(dp721
g34
(lp722
F0.005
aI1
asg26
(lp723
F0.9
aI3
ass(g116
(F7.0
F9.0
g18
tp724
tp725
(dp726
g16
(lp727
F0.15
aI4
ass((F7.0
F5.0
g18
tp728
(F7.0
F5.0
g20
tp729
tp730
(dp731
g26
(lp732
F0.05
aI3
asg28
(lp733
F0.05
aI3
ass((F5.0
F3.0
g1
tp734
(F7.0
F3.0
g1
tp735
tp736
(dp737
g8
(lp738
F0.8
aI2
ass(g274
(F5.0
F5.0
g1
tp739
tp740
(dp741
g16
(lp742
F0.15
aI4
ass(g286
(F7.0
F1.0
g59
tp743
tp744
(dp745
g34
(lp746
F0.005
aI1
asg26
(lp747
F0.9
aI3
ass(g622
(F7.0
F1.0
g1
tp748
tp749
(dp750
g26
(lp751
F0.05
aI3
asg28
(lp752
F0.05
aI3
ass(g526
(F7.0
F3.0
g59
tp753
tp754
(dp755
g26
(lp756
F0.05
aI3
asg28
(lp757
F0.05
aI3
ass((F7.0
F1.0
g1
tp758
(F9.0
F3.0
g1
tp759
tp760
(dp761
g8
(lp762
F0.15
aI2
ass(g54
(F3.0
F7.0
g18
tp763
tp764
(dp765
g8
(lp766
F0.1
aI2
ass(g76
(F3.0
F5.0
g18
tp767
tp768
(dp769
g16
(lp770
F0.15
aI4
ass(g171
(F1.0
F1.0
g20
tp771
tp772
(dp773
g16
(lp774
F0.7749999999999999
aI4
ass(g574
(F9.0
F5.0
g1
tp775
tp776
(dp777
g34
(lp778
F0.005
aI1
asg28
(lp779
F0.9
aI3
ass(g363
(F3.0
F3.0
g59
tp780
tp781
(dp782
g34
(lp783
F0.005
aI1
asg26
(lp784
F0.9
aI3
ass(g134
(F5.0
F7.0
g20
tp785
tp786
(dp787
g8
(lp788
F0.8
aI2
ass(g307
(F1.0
F5.0
g1
tp789
tp790
(dp791
g26
(lp792
F0.05
aI3
asg28
(lp793
F0.05
aI3
ass(g584
(F9.0
F7.0
g1
tp794
tp795
(dp796
g8
(lp797
F0.1
aI2
ass(g88
(F7.0
F9.0
g59
tp798
tp799
(dp800
g34
(lp801
F0.99
aI1
asg26
(lp802
F0.05
aI3
asg28
(lp803
F0.05
aI3
ass((F9.0
F5.0
g18
tp804
(F9.0
F5.0
g18
tp805
tp806
(dp807
g34
(lp808
F0.99
aI1
asg26
(lp809
F0.05
aI3
asg28
(lp810
F0.05
aI3
ass((F9.0
F1.0
g1
tp811
(F7.0
F1.0
g1
tp812
tp813
(dp814
g16
(lp815
F0.7749999999999999
aI4
ass(g307
(F3.0
F3.0
g59
tp816
tp817
(dp818
g16
(lp819
F0.15
aI4
ass((F1.0
F1.0
g59
tp820
(F1.0
F1.0
g20
tp821
tp822
(dp823
g34
(lp824
F0.005
aI1
asg28
(lp825
F0.9
aI3
ass(g116
(F3.0
F9.0
g18
tp826
tp827
(dp828
g16
(lp829
F0.15
aI4
ass(g452
(F7.0
F1.0
g18
tp830
tp831
(dp832
g34
(lp833
F0.99
aI1
asg26
(lp834
F0.05
aI3
asg28
(lp835
F0.05
aI3
ass(g178
(F3.0
F3.0
g18
tp836
tp837
(dp838
g8
(lp839
F0.1
aI2
ass(g178
(F5.0
F5.0
g20
tp840
tp841
(dp842
g26
(lp843
F0.05
aI3
asg28
(lp844
F0.05
aI3
ass((F5.0
F7.0
g1
tp845
(F5.0
F7.0
g18
tp846
tp847
(dp848
g34
(lp849
F0.005
aI1
asg28
(lp850
F0.9
aI3
ass(g734
(F5.0
F3.0
g20
tp851
tp852
(dp853
g34
(lp854
F0.005
aI1
asg26
(lp855
F0.9
aI3
ass(g60
(F9.0
F1.0
g59
tp856
tp857
(dp858
g34
(lp859
F0.99
aI1
asg26
(lp860
F0.05
aI3
asg28
(lp861
F0.05
aI3
ass(g804
(F9.0
F5.0
g59
tp862
tp863
(dp864
g34
(lp865
F0.005
aI1
asg28
(lp866
F0.9
aI3
ass(g734
(F3.0
F3.0
g1
tp867
tp868
(dp869
g16
(lp870
F0.7
aI4
ass(g199
(F5.0
F5.0
g18
tp871
tp872
(dp873
g8
(lp874
F0.1
aI2
ass(g54
(F5.0
F9.0
g1
tp875
tp876
(dp877
g34
(lp878
F0.005
aI1
asg26
(lp879
F0.9
aI3
ass((F3.0
F9.0
g20
tp880
(F3.0
F7.0
g20
tp881
tp882
(dp883
g16
(lp884
F0.7
aI4
ass(g327
(F5.0
F3.0
g59
tp885
tp886
(dp887
g16
(lp888
F0.15
aI4
ass(g332
(F7.0
F3.0
g59
tp889
tp890
(dp891
g34
(lp892
F0.005
aI1
asg26
(lp893
F0.9
aI3
ass((F9.0
F5.0
g1
tp894
(F7.0
F7.0
g1
tp895
tp896
(dp897
g16
(lp898
F0.15
aI4
ass(g171
(F1.0
F3.0
g1
tp899
tp900
(dp901
g34
(lp902
F0.005
aI1
asg28
(lp903
F0.9
aI3
ass(g10
(F3.0
F7.0
g20
tp904
tp905
(dp906
g34
(lp907
F0.005
aI1
asg26
(lp908
F0.9
aI3
ass(g718
(F7.0
F9.0
g59
tp909
tp910
(dp911
g16
(lp912
F0.7749999999999999
aI4
ass(g398
(F3.0
F5.0
g1
tp913
tp914
(dp915
g8
(lp916
F0.1
aI2
ass((F5.0
F5.0
g59
tp917
(F3.0
F5.0
g59
tp918
tp919
(dp920
g8
(lp921
F0.8
aI2
ass(g461
(F1.0
F9.0
g59
tp922
tp923
(dp924
g26
(lp925
F0.05
aI3
asg28
(lp926
F0.05
aI3
ass(g38
(F5.0
F5.0
g18
tp927
tp928
(dp929
g34
(lp930
F0.005
aI1
asg28
(lp931
F0.9
aI3
ass(g262
(F1.0
F5.0
g59
tp932
tp933
(dp934
g8
(lp935
F0.1
aI2
ass(g574
(F9.0
F3.0
g20
tp936
tp937
(dp938
g16
(lp939
F0.7749999999999999
aI4
ass(g88
(F5.0
F7.0
g59
tp940
tp941
(dp942
g8
(lp943
F0.15
aI2
ass(g468
(F1.0
F7.0
g18
tp944
tp945
(dp946
g34
(lp947
F0.005
aI1
asg26
(lp948
F0.9
aI3
ass(g601
(F9.0
F3.0
g1
tp949
tp950
(dp951
g34
(lp952
F0.99
aI1
asg26
(lp953
F0.05
aI3
asg28
(lp954
F0.05
aI3
ass(g227
(F3.0
F9.0
g1
tp955
tp956
(dp957
g26
(lp958
F0.05
aI3
asg28
(lp959
F0.05
aI3
ass(g758
(F5.0
F1.0
g1
tp960
tp961
(dp962
g16
(lp963
F0.7749999999999999
aI4
ass(g281
(F5.0
F3.0
g20
tp964
tp965
(dp966
g34
(lp967
F0.005
aI1
asg28
(lp968
F0.9
aI3
ass(g297
(F3.0
F3.0
g20
tp969
tp970
(dp971
g16
(lp972
F0.225
aI4
ass(g845
(F7.0
F7.0
g1
tp973
tp974
(dp975
g8
(lp976
F0.8
aI2
ass(g569
(F5.0
F1.0
g1
tp977
tp978
(dp979
g34
(lp980
F0.99
aI1
asg26
(lp981
F0.05
aI3
asg28
(lp982
F0.05
aI3
ass(g804
(F9.0
F5.0
g20
tp983
tp984
(dp985
g26
(lp986
F0.05
aI3
asg28
(lp987
F0.05
aI3
ass((F7.0
F3.0
g18
tp988
(F9.0
F1.0
g18
tp989
tp990
(dp991
g8
(lp992
F0.1
aI2
ass(g516
(F1.0
F7.0
g18
tp993
tp994
(dp995
g26
(lp996
F0.05
aI3
asg28
(lp997
F0.05
aI3
ass(g917
(F3.0
F7.0
g59
tp998
tp999
(dp1000
g8
(lp1001
F0.1
aI2
ass(g569
(F7.0
F3.0
g1
tp1002
tp1003
(dp1004
g8
(lp1005
F0.15
aI2
ass(g622
(F7.0
F1.0
g59
tp1006
tp1007
(dp1008
g34
(lp1009
F0.99
aI1
asg26
(lp1010
F0.05
aI3
asg28
(lp1011
F0.05
aI3
ass(g248
(F7.0
F5.0
g18
tp1012
tp1013
(dp1014
g26
(lp1015
F0.05
aI3
asg28
(lp1016
F0.05
aI3
ass(g424
(F7.0
F5.0
g59
tp1017
tp1018
(dp1019
g8
(lp1020
F0.1
aI2
ass(g65
(F7.0
F7.0
g59
tp1021
tp1022
(dp1023
g8
(lp1024
F0.8
aI2
ass(g227
(F3.0
F9.0
g59
tp1025
tp1026
(dp1027
g34
(lp1028
F0.99
aI1
asg26
(lp1029
F0.05
aI3
asg28
(lp1030
F0.05
aI3
ass((F7.0
F9.0
g20
tp1031
(F7.0
F9.0
g1
tp1032
tp1033
(dp1034
g34
(lp1035
F0.005
aI1
asg28
(lp1036
F0.9
aI3
ass(g988
(F7.0
F1.0
g18
tp1037
tp1038
(dp1039
g8
(lp1040
F0.8
aI2
ass(g262
(F1.0
F7.0
g59
tp1041
tp1042
(dp1043
g8
(lp1044
F0.8
aI2
ass(g845
(F5.0
F7.0
g59
tp1045
tp1046
(dp1047
g26
(lp1048
F0.05
aI3
asg28
(lp1049
F0.05
aI3
ass(g217
(F9.0
F5.0
g18
tp1050
tp1051
(dp1052
g34
(lp1053
F0.005
aI1
asg26
(lp1054
F0.9
aI3
ass(g680
(F5.0
F3.0
g18
tp1055
tp1056
(dp1057
g26
(lp1058
F0.05
aI3
asg28
(lp1059
F0.05
aI3
ass(g917
(F7.0
F5.0
g59
tp1060
tp1061
(dp1062
g16
(lp1063
F0.7
aI4
ass(g199
(F3.0
F7.0
g18
tp1064
tp1065
(dp1066
g34
(lp1067
F0.99
aI1
asg26
(lp1068
F0.05
aI3
asg28
(lp1069
F0.05
aI3
ass(g38
(F5.0
F5.0
g1
tp1070
tp1071
(dp1072
g34
(lp1073
F0.99
aI1
asg26
(lp1074
F0.05
aI3
asg28
(lp1075
F0.05
aI3
ass(g332
(F7.0
F1.0
g20
tp1076
tp1077
(dp1078
g16
(lp1079
F0.7
aI4
ass(g363
(F5.0
F5.0
g20
tp1080
tp1081
(dp1082
g8
(lp1083
F0.1
aI2
ass(g584
(F9.0
F5.0
g1
tp1084
tp1085
(dp1086
g8
(lp1087
F0.8
aI2
ass(g211
(F1.0
F9.0
g20
tp1088
tp1089
(dp1090
g26
(lp1091
F0.05
aI3
asg28
(lp1092
F0.05
aI3
ass(g30
(F3.0
F5.0
g18
tp1093
tp1094
(dp1095
g16
(lp1096
F0.225
aI4
ass(g110
(F7.0
F7.0
g18
tp1097
tp1098
(dp1099
g34
(lp1100
F0.005
aI1
asg26
(lp1101
F0.9
aI3
ass(g880
(F3.0
F9.0
g20
tp1102
tp1103
(dp1104
g34
(lp1105
F0.99
aI1
asg26
(lp1106
F0.05
aI3
asg28
(lp1107
F0.05
aI3
ass(g99
(F9.0
F7.0
g20
tp1108
tp1109
(dp1110
g26
(lp1111
F0.05
aI3
asg28
(lp1112
F0.05
aI3
ass(g242
(F9.0
F9.0
g1
tp1113
tp1114
(dp1115
g8
(lp1116
F0.8500000000000001
aI2
ass(g217
(F9.0
F5.0
g1
tp1117
tp1118
(dp1119
g26
(lp1120
F0.05
aI3
asg28
(lp1121
F0.05
aI3
ass(g728
(F5.0
F3.0
g18
tp1122
tp1123
(dp1124
g8
(lp1125
F0.1
aI2
ass(g110
(F9.0
F9.0
g59
tp1126
tp1127
(dp1128
g16
(lp1129
F0.15
aI4
ass(g227
(F5.0
F9.0
g59
tp1130
tp1131
(dp1132
g16
(lp1133
F0.7749999999999999
aI4
ass(g452
(F7.0
F1.0
g20
tp1134
tp1135
(dp1136
g26
(lp1137
F0.05
aI3
asg28
(lp1138
F0.05
aI3
ass(g122
(F3.0
F9.0
g20
tp1139
tp1140
(dp1141
g8
(lp1142
F0.1
aI2
ass(g1031
(F7.0
F9.0
g20
tp1143
tp1144
(dp1145
g34
(lp1146
F0.99
aI1
asg26
(lp1147
F0.05
aI3
asg28
(lp1148
F0.05
aI3
ass((F3.0
F3.0
g59
tp1149
(F1.0
F3.0
g59
tp1150
tp1151
(dp1152
g8
(lp1153
F0.8
aI2
ass(g332
(F7.0
F5.0
g20
tp1154
tp1155
(dp1156
g8
(lp1157
F0.8
aI2
ass(g43
(F1.0
F9.0
g59
tp1158
tp1159
(dp1160
g34
(lp1161
F0.005
aI1
asg26
(lp1162
F0.9
aI3
ass(g144
(F9.0
F5.0
g18
tp1163
tp1164
(dp1165
g8
(lp1166
F0.1
aI2
ass(g442
(F5.0
F9.0
g20
tp1167
tp1168
(dp1169
g8
(lp1170
F0.1
aI2
ass(g155
(F7.0
F3.0
g59
tp1171
tp1172
(dp1173
g34
(lp1174
F0.99
aI1
asg26
(lp1175
F0.05
aI3
asg28
(lp1176
F0.05
aI3
ass((F5.0
F1.0
g20
tp1177
(F3.0
F3.0
g20
tp1178
tp1179
(dp1180
g8
(lp1181
F0.1
aI2
ass(g178
(F3.0
F7.0
g18
tp1182
tp1183
(dp1184
g16
(lp1185
F0.15
aI4
ass(g820
(F3.0
F1.0
g59
tp1186
tp1187
(dp1188
g16
(lp1189
F0.7749999999999999
aI4
ass(g94
(F3.0
F1.0
g18
tp1190
tp1191
(dp1192
g34
(lp1193
F0.005
aI1
asg28
(lp1194
F0.9
aI3
ass(g155
(F9.0
F5.0
g59
tp1195
tp1196
(dp1197
g16
(lp1198
F0.15
aI4
ass((F3.0
F3.0
g1
tp1199
(F5.0
F5.0
g1
tp1200
tp1201
(dp1202
g8
(lp1203
F0.1
aI2
ass(g461
(F3.0
F9.0
g1
tp1204
tp1205
(dp1206
g8
(lp1207
F0.8500000000000001
aI2
ass(g392
(F3.0
F9.0
g1
tp1208
tp1209
(dp1210
g34
(lp1211
F0.99
aI1
asg26
(lp1212
F0.05
aI3
asg28
(lp1213
F0.05
aI3
ass((F9.0
F1.0
g20
tp1214
(F7.0
F3.0
g20
tp1215
tp1216
(dp1217
g8
(lp1218
F0.15
aI2
ass(g81
(F5.0
F1.0
g20
tp1219
tp1220
(dp1221
g26
(lp1222
F0.05
aI3
asg28
(lp1223
F0.05
aI3
ass(g1177
(F5.0
F1.0
g20
tp1224
tp1225
(dp1226
g34
(lp1227
F0.99
aI1
asg26
(lp1228
F0.05
aI3
asg28
(lp1229
F0.05
aI3
ass(g988
(F7.0
F3.0
g59
tp1230
tp1231
(dp1232
g34
(lp1233
F0.005
aI1
asg28
(lp1234
F0.9
aI3
ass((F7.0
F5.0
g59
tp1235
(F9.0
F5.0
g59
tp1236
tp1237
(dp1238
g16
(lp1239
F0.7
aI4
ass(g155
(F5.0
F1.0
g59
tp1240
tp1241
(dp1242
g8
(lp1243
F0.1
aI2
ass(g734
(F5.0
F3.0
g59
tp1244
tp1245
(dp1246
g26
(lp1247
F0.05
aI3
asg28
(lp1248
F0.05
aI3
ass(g468
(F3.0
F7.0
g59
tp1249
tp1250
(dp1251
g16
(lp1252
F0.7
aI4
ass((F9.0
F9.0
g1
tp1253
(F9.0
F9.0
g59
tp1254
tp1255
(dp1256
g26
(lp1257
F0.05
aI3
asg28
(lp1258
F0.05
aI3
ass(g718
(F7.0
F7.0
g59
tp1259
tp1260
(dp1261
g16
(lp1262
F0.225
aI4
ass(g447
(F3.0
F9.0
g1
tp1263
tp1264
(dp1265
g16
(lp1266
F0.7749999999999999
aI4
ass(g178
(F5.0
F5.0
g18
tp1267
tp1268
(dp1269
g34
(lp1270
F0.99
aI1
asg26
(lp1271
F0.05
aI3
asg28
(lp1272
F0.05
aI3
ass(g242
(F7.0
F9.0
g20
tp1273
tp1274
(dp1275
g34
(lp1276
F0.005
aI1
asg26
(lp1277
F0.9
aI3
ass(g612
(F9.0
F9.0
g18
tp1278
tp1279
(dp1280
g34
(lp1281
F0.99
aI1
asg26
(lp1282
F0.05
aI3
asg28
(lp1283
F0.05
aI3
ass(g54
(F5.0
F9.0
g20
tp1284
tp1285
(dp1286
g26
(lp1287
F0.05
aI3
asg28
(lp1288
F0.05
aI3
ass(g607
(F9.0
F3.0
g59
tp1289
tp1290
(dp1291
g34
(lp1292
F0.005
aI1
asg28
(lp1293
F0.9
aI3
ass(g734
(F5.0
F3.0
g18
tp1294
tp1295
(dp1296
g34
(lp1297
F0.005
aI1
asg28
(lp1298
F0.9
aI3
ass(g178
(F5.0
F7.0
g18
tp1299
tp1300
(dp1301
g16
(lp1302
F0.7
aI4
ass(g248
(F7.0
F7.0
g20
tp1303
tp1304
(dp1305
g8
(lp1306
F0.8
aI2
ass(g1235
(F5.0
F7.0
g59
tp1307
tp1308
(dp1309
g8
(lp1310
F0.1
aI2
ass(g81
(F5.0
F3.0
g18
tp1311
tp1312
(dp1313
g16
(lp1314
F0.7
aI4
ass(g607
(F9.0
F3.0
g18
tp1315
tp1316
(dp1317
g34
(lp1318
F0.99
aI1
asg26
(lp1319
F0.05
aI3
asg28
(lp1320
F0.05
aI3
ass(g255
(F5.0
F1.0
g1
tp1321
tp1322
(dp1323
g26
(lp1324
F0.05
aI3
asg28
(lp1325
F0.05
aI3
ass(g363
(F5.0
F1.0
g20
tp1326
tp1327
(dp1328
g16
(lp1329
F0.15
aI4
ass(g116
(F7.0
F5.0
g18
tp1330
tp1331
(dp1332
g8
(lp1333
F0.1
aI2
ass(g222
(F3.0
F3.0
g18
tp1334
tp1335
(dp1336
g34
(lp1337
F0.99
aI1
asg26
(lp1338
F0.05
aI3
asg28
(lp1339
F0.05
aI3
ass(g880
(F3.0
F9.0
g18
tp1340
tp1341
(dp1342
g26
(lp1343
F0.05
aI3
asg28
(lp1344
F0.05
aI3
ass(g144
(F7.0
F7.0
g1
tp1345
tp1346
(dp1347
g34
(lp1348
F0.005
aI1
asg26
(lp1349
F0.9
aI3
ass((F3.0
F5.0
g1
tp1350
(F3.0
F5.0
g20
tp1351
tp1352
(dp1353
g34
(lp1354
F0.005
aI1
asg26
(lp1355
F0.9
aI3
ass(g99
(F9.0
F7.0
g18
tp1356
tp1357
(dp1358
g34
(lp1359
F0.99
aI1
asg26
(lp1360
F0.05
aI3
asg28
(lp1361
F0.05
aI3
ass(g665
(F3.0
F5.0
g18
tp1362
tp1363
(dp1364
g8
(lp1365
F0.15
aI2
ass(g242
(F7.0
F9.0
g1
tp1366
tp1367
(dp1368
g34
(lp1369
F0.99
aI1
asg26
(lp1370
F0.05
aI3
asg28
(lp1371
F0.05
aI3
ass((F1.0
F3.0
g1
tp1372
(F3.0
F5.0
g1
tp1373
tp1374
(dp1375
g8
(lp1376
F0.1
aI2
ass(g248
(F5.0
F3.0
g20
tp1377
tp1378
(dp1379
g16
(lp1380
F0.15
aI4
ass(g718
(F5.0
F9.0
g20
tp1381
tp1382
(dp1383
g34
(lp1384
F0.005
aI1
asg28
(lp1385
F0.9
aI3
ass(g516
(F3.0
F5.0
g20
tp1386
tp1387
(dp1388
g16
(lp1389
F0.225
aI4
ass(g43
(F1.0
F7.0
g20
tp1390
tp1391
(dp1392
g16
(lp1393
F0.7749999999999999
aI4
ass(g988
(F5.0
F5.0
g18
tp1394
tp1395
(dp1396
g16
(lp1397
F0.15
aI4
ass(g392
(F1.0
F9.0
g1
tp1398
tp1399
(dp1400
g16
(lp1401
F0.7749999999999999
aI4
ass(g424
(F9.0
F3.0
g18
tp1402
tp1403
(dp1404
g34
(lp1405
F0.005
aI1
asg26
(lp1406
F0.9
aI3
ass(g1031
(F7.0
F7.0
g20
tp1407
tp1408
(dp1409
g16
(lp1410
F0.7
aI4
ass(g1235
(F9.0
F7.0
g59
tp1411
tp1412
(dp1413
g16
(lp1414
F0.15
aI4
ass(g526
(F9.0
F3.0
g1
tp1415
tp1416
(dp1417
g8
(lp1418
F0.8
aI2
ass(g468
(F1.0
F7.0
g59
tp1419
tp1420
(dp1421
g34
(lp1422
F0.99
aI1
asg26
(lp1423
F0.05
aI3
asg28
(lp1424
F0.05
aI3
ass(g584
(F5.0
F7.0
g1
tp1425
tp1426
(dp1427
g16
(lp1428
F0.15
aI4
ass(g594
(F3.0
F3.0
g18
tp1429
tp1430
(dp1431
g8
(lp1432
F0.15
aI2
ass(g122
(F3.0
F5.0
g20
tp1433
tp1434
(dp1435
g16
(lp1436
F0.15
aI4
ass(g268
(F7.0
F9.0
g1
tp1437
tp1438
(dp1439
g16
(lp1440
F0.15
aI4
ass(g297
(F1.0
F7.0
g20
tp1441
tp1442
(dp1443
g8
(lp1444
F0.8500000000000001
aI2
ass(g811
(F9.0
F1.0
g18
tp1445
tp1446
(dp1447
g34
(lp1448
F0.005
aI1
asg28
(lp1449
F0.9
aI3
ass(g139
(F1.0
F7.0
g20
tp1450
tp1451
(dp1452
g8
(lp1453
F0.1
aI2
ass((F9.0
F7.0
g20
tp1454
(F9.0
F7.0
g1
tp1455
tp1456
(dp1457
g34
(lp1458
F0.005
aI1
asg28
(lp1459
F0.9
aI3
ass(g429
(F3.0
F1.0
g1
tp1460
tp1461
(dp1462
g34
(lp1463
F0.005
aI1
asg28
(lp1464
F0.9
aI3
ass(g516
(F1.0
F7.0
g20
tp1465
tp1466
(dp1467
g34
(lp1468
F0.99
aI1
asg26
(lp1469
F0.05
aI3
asg28
(lp1470
F0.05
aI3
ass(g94
(F1.0
F1.0
g1
tp1471
tp1472
(dp1473
g16
(lp1474
F0.7749999999999999
aI4
ass(g134
(F3.0
F7.0
g20
tp1475
tp1476
(dp1477
g8
(lp1478
F0.1
aI2
ass(g71
(F1.0
F3.0
g59
tp1479
tp1480
(dp1481
g8
(lp1482
F0.15
aI2
ass(g917
(F5.0
F5.0
g18
tp1483
tp1484
(dp1485
g34
(lp1486
F0.005
aI1
asg26
(lp1487
F0.9
aI3
ass(g10
(F5.0
F9.0
g1
tp1488
tp1489
(dp1490
g8
(lp1491
F0.1
aI2
ass(g1372
(F1.0
F3.0
g59
tp1492
tp1493
(dp1494
g26
(lp1495
F0.05
aI3
asg28
(lp1496
F0.05
aI3
ass(g268
(F9.0
F7.0
g1
tp1497
tp1498
(dp1499
g34
(lp1500
F0.99
aI1
asg26
(lp1501
F0.05
aI3
asg28
(lp1502
F0.05
aI3
ass(g647
(F3.0
F7.0
g59
tp1503
tp1504
(dp1505
g16
(lp1506
F0.225
aI4
ass(g71
(F3.0
F1.0
g1
tp1507
tp1508
(dp1509
g26
(lp1510
F0.05
aI3
asg28
(lp1511
F0.05
aI3
ass(g307
(F3.0
F5.0
g59
tp1512
tp1513
(dp1514
g16
(lp1515
F0.7
aI4
ass(g104
(F3.0
F5.0
g18
tp1516
tp1517
(dp1518
g34
(lp1519
F0.99
aI1
asg26
(lp1520
F0.05
aI3
asg28
(lp1521
F0.05
aI3
ass(g353
(F5.0
F7.0
g20
tp1522
tp1523
(dp1524
g16
(lp1525
F0.7
aI4
ass(g155
(F9.0
F1.0
g59
tp1526
tp1527
(dp1528
g16
(lp1529
F0.15
aI4
ass(g139
(F3.0
F7.0
g20
tp1530
tp1531
(dp1532
g8
(lp1533
F0.8
aI2
ass(g1235
(F5.0
F3.0
g59
tp1534
tp1535
(dp1536
g8
(lp1537
F0.1
aI2
ass(g99
(F7.0
F5.0
g18
tp1538
tp1539
(dp1540
g8
(lp1541
F0.15
aI2
ass(g601
(F9.0
F3.0
g59
tp1542
tp1543
(dp1544
g26
(lp1545
F0.05
aI3
asg28
(lp1546
F0.05
aI3
ass(g19
(F3.0
F1.0
g18
tp1547
tp1548
(dp1549
g34
(lp1550
F0.99
aI1
asg26
(lp1551
F0.05
aI3
asg28
(lp1552
F0.05
aI3
ass(g845
(F3.0
F9.0
g1
tp1553
tp1554
(dp1555
g16
(lp1556
F0.15
aI4
ass(g1031
(F7.0
F9.0
g18
tp1557
tp1558
(dp1559
g26
(lp1560
F0.05
aI3
asg28
(lp1561
F0.05
aI3
ass(g398
(F1.0
F7.0
g1
tp1562
tp1563
(dp1564
g34
(lp1565
F0.99
aI1
asg26
(lp1566
F0.05
aI3
asg28
(lp1567
F0.05
aI3
ass(g65
(F7.0
F5.0
g59
tp1568
tp1569
(dp1570
g8
(lp1571
F0.1
aI2
ass(g307
(F1.0
F5.0
g20
tp1572
tp1573
(dp1574
g34
(lp1575
F0.005
aI1
asg28
(lp1576
F0.9
aI3
ass((F9.0
F9.0
g59
tp1577
(F9.0
F9.0
g59
tp1578
tp1579
(dp1580
g34
(lp1581
F0.99
aI1
asg26
(lp1582
F0.05
aI3
asg28
(lp1583
F0.05
aI3
ass(g804
(F7.0
F7.0
g18
tp1584
tp1585
(dp1586
g16
(lp1587
F0.225
aI4
ass(g574
(F9.0
F5.0
g20
tp1588
tp1589
(dp1590
g34
(lp1591
F0.99
aI1
asg26
(lp1592
F0.05
aI3
asg28
(lp1593
F0.05
aI3
ass(g286
(F7.0
F3.0
g20
tp1594
tp1595
(dp1596
g8
(lp1597
F0.8
aI2
ass(g268
(F9.0
F7.0
g20
tp1598
tp1599
(dp1600
g34
(lp1601
F0.005
aI1
asg26
(lp1602
F0.9
aI3
ass(g149
(F3.0
F7.0
g59
tp1603
tp1604
(dp1605
g8
(lp1606
F0.8
aI2
ass(g122
(F7.0
F5.0
g20
tp1607
tp1608
(dp1609
g16
(lp1610
F0.15
aI4
ass(g104
(F3.0
F5.0
g20
tp1611
tp1612
(dp1613
g26
(lp1614
F0.05
aI3
asg28
(lp1615
F0.05
aI3
ass(g171
(F3.0
F1.0
g20
tp1616
tp1617
(dp1618
g16
(lp1619
F0.225
aI4
ass(g680
(F7.0
F1.0
g20
tp1620
tp1621
(dp1622
g16
(lp1623
F0.15
aI4
ass(g612
(F9.0
F9.0
g20
tp1624
tp1625
(dp1626
g26
(lp1627
F0.05
aI3
asg28
(lp1628
F0.05
aI3
ass(g1214
(F9.0
F1.0
g18
tp1629
tp1630
(dp1631
g26
(lp1632
F0.05
aI3
asg28
(lp1633
F0.05
aI3
ass(g398
(F1.0
F7.0
g18
tp1634
tp1635
(dp1636
g34
(lp1637
F0.005
aI1
asg28
(lp1638
F0.9
aI3
ass(g327
(F3.0
F5.0
g59
tp1639
tp1640
(dp1641
g34
(lp1642
F0.99
aI1
asg26
(lp1643
F0.05
aI3
asg28
(lp1644
F0.05
aI3
ass(g19
(F3.0
F1.0
g59
tp1645
tp1646
(dp1647
g34
(lp1648
F0.005
aI1
asg28
(lp1649
F0.9
aI3
ass(g452
(F9.0
F3.0
g18
tp1650
tp1651
(dp1652
g16
(lp1653
F0.15
aI4
ass((F1.0
F1.0
g18
tp1654
(F1.0
F1.0
g18
tp1655
tp1656
(dp1657
g34
(lp1658
F0.99
aI1
asg26
(lp1659
F0.05
aI3
asg28
(lp1660
F0.05
aI3
ass(g442
(F3.0
F7.0
g1
tp1661
tp1662
(dp1663
g34
(lp1664
F0.005
aI1
asg28
(lp1665
F0.9
aI3
ass(g917
(F7.0
F3.0
g59
tp1666
tp1667
(dp1668
g16
(lp1669
F0.15
aI4
ass(g429
(F5.0
F3.0
g20
tp1670
tp1671
(dp1672
g8
(lp1673
F0.1
aI2
ass(g1177
(F7.0
F3.0
g20
tp1674
tp1675
(dp1676
g8
(lp1677
F0.1
aI2
ass(g988
(F7.0
F3.0
g1
tp1678
tp1679
(dp1680
g34
(lp1681
F0.005
aI1
asg26
(lp1682
F0.9
aI3
ass(g178
(F5.0
F5.0
g59
tp1683
tp1684
(dp1685
g34
(lp1686
F0.005
aI1
asg28
(lp1687
F0.9
aI3
ass(g1454
(F9.0
F7.0
g18
tp1688
tp1689
(dp1690
g26
(lp1691
F0.05
aI3
asg28
(lp1692
F0.05
aI3
ass(g363
(F1.0
F1.0
g20
tp1693
tp1694
(dp1695
g16
(lp1696
F0.15
aI4
ass(g242
(F5.0
F7.0
g1
tp1697
tp1698
(dp1699
g16
(lp1700
F0.225
aI4
ass(g327
(F5.0
F7.0
g59
tp1701
tp1702
(dp1703
g16
(lp1704
F0.15
aI4
ass(g30
(F1.0
F3.0
g1
tp1705
tp1706
(dp1707
g34
(lp1708
F0.005
aI1
asg26
(lp1709
F0.9
aI3
ass(g194
(F9.0
F1.0
g20
tp1710
tp1711
(dp1712
g16
(lp1713
F0.7749999999999999
aI4
ass(g442
(F3.0
F7.0
g20
tp1714
tp1715
(dp1716
g34
(lp1717
F0.99
aI1
asg26
(lp1718
F0.05
aI3
asg28
(lp1719
F0.05
aI3
ass(g110
(F5.0
F9.0
g59
tp1720
tp1721
(dp1722
g8
(lp1723
F0.1
aI2
ass(g38
(F3.0
F5.0
g1
tp1724
tp1725
(dp1726
g16
(lp1727
F0.7
aI4
ass(g647
(F1.0
F9.0
g1
tp1728
tp1729
(dp1730
g26
(lp1731
F0.05
aI3
asg28
(lp1732
F0.05
aI3
ass(g171
(F1.0
F3.0
g18
tp1733
tp1734
(dp1735
g26
(lp1736
F0.05
aI3
asg28
(lp1737
F0.05
aI3
ass(g274
(F9.0
F7.0
g1
tp1738
tp1739
(dp1740
g8
(lp1741
F0.8
aI2
ass(g1350
(F1.0
F3.0
g1
tp1742
tp1743
(dp1744
g16
(lp1745
F0.15
aI4
ass(g49
(F9.0
F9.0
g20
tp1746
tp1747
(dp1748
g34
(lp1749
F0.99
aI1
asg26
(lp1750
F0.05
aI3
asg28
(lp1751
F0.05
aI3
ass(g594
(F3.0
F7.0
g18
tp1752
tp1753
(dp1754
g16
(lp1755
F0.225
aI4
ass(g134
(F7.0
F3.0
g20
tp1756
tp1757
(dp1758
g16
(lp1759
F0.15
aI4
ass(g327
(F1.0
F3.0
g59
tp1760
tp1761
(dp1762
g8
(lp1763
F0.1
aI2
ass(g641
(F5.0
F9.0
g20
tp1764
tp1765
(dp1766
g8
(lp1767
F0.1
aI2
ass(g804
(F9.0
F5.0
g1
tp1768
tp1769
(dp1770
g34
(lp1771
F0.005
aI1
asg26
(lp1772
F0.9
aI3
ass(g1372
(F3.0
F1.0
g1
tp1773
tp1774
(dp1775
g8
(lp1776
F0.1
aI2
ass(g122
(F5.0
F7.0
g20
tp1777
tp1778
(dp1779
g34
(lp1780
F0.99
aI1
asg26
(lp1781
F0.05
aI3
asg28
(lp1782
F0.05
aI3
ass(g917
(F5.0
F5.0
g20
tp1783
tp1784
(dp1785
g34
(lp1786
F0.005
aI1
asg28
(lp1787
F0.9
aI3
ass(g442
(F3.0
F9.0
g20
tp1788
tp1789
(dp1790
g8
(lp1791
F0.8
aI2
ass(g139
(F3.0
F5.0
g59
tp1792
tp1793
(dp1794
g34
(lp1795
F0.005
aI1
asg26
(lp1796
F0.9
aI3
ass(g429
(F1.0
F3.0
g20
tp1797
tp1798
(dp1799
g8
(lp1800
F0.1
aI2
ass(g1235
(F7.0
F5.0
g1
tp1801
tp1802
(dp1803
g26
(lp1804
F0.05
aI3
asg28
(lp1805
F0.05
aI3
ass(g758
(F7.0
F1.0
g18
tp1806
tp1807
(dp1808
g34
(lp1809
F0.005
aI1
asg28
(lp1810
F0.9
aI3
ass(g680
(F7.0
F5.0
g20
tp1811
tp1812
(dp1813
g8
(lp1814
F0.1
aI2
ass(g447
(F5.0
F9.0
g20
tp1815
tp1816
(dp1817
g34
(lp1818
F0.005
aI1
asg26
(lp1819
F0.9
aI3
ass(g442
(F1.0
F5.0
g20
tp1820
tp1821
(dp1822
g16
(lp1823
F0.15
aI4
ass(g1149
(F1.0
F1.0
g59
tp1824
tp1825
(dp1826
g8
(lp1827
F0.1
aI2
ass(g76
(F5.0
F3.0
g18
tp1828
tp1829
(dp1830
g34
(lp1831
F0.99
aI1
asg26
(lp1832
F0.05
aI3
asg28
(lp1833
F0.05
aI3
ass(g211
(F1.0
F9.0
g18
tp1834
tp1835
(dp1836
g34
(lp1837
F0.99
aI1
asg26
(lp1838
F0.05
aI3
asg28
(lp1839
F0.05
aI3
ass(g60
(F9.0
F1.0
g18
tp1840
tp1841
(dp1842
g34
(lp1843
F0.005
aI1
asg26
(lp1844
F0.9
aI3
ass(g104
(F3.0
F7.0
g18
tp1845
tp1846
(dp1847
g16
(lp1848
F0.7
aI4
ass(g988
(F7.0
F3.0
g18
tp1849
tp1850
(dp1851
g34
(lp1852
F0.99
aI1
asg26
(lp1853
F0.05
aI3
asg28
(lp1854
F0.05
aI3
ass(g242
(F9.0
F7.0
g1
tp1855
tp1856
(dp1857
g8
(lp1858
F0.15
aI2
ass(g255
(F7.0
F3.0
g59
tp1859
tp1860
(dp1861
g16
(lp1862
F0.225
aI4
ass(g647
(F1.0
F9.0
g59
tp1863
tp1864
(dp1865
g34
(lp1866
F0.99
aI1
asg26
(lp1867
F0.05
aI3
asg28
(lp1868
F0.05
aI3
ass(g332
(F9.0
F1.0
g20
tp1869
tp1870
(dp1871
g16
(lp1872
F0.15
aI4
ass(g452
(F7.0
F1.0
g1
tp1873
tp1874
(dp1875
g34
(lp1876
F0.005
aI1
asg26
(lp1877
F0.9
aI3
ass(g612
(F9.0
F7.0
g18
tp1878
tp1879
(dp1880
g8
(lp1881
F0.8500000000000001
aI2
ass(g647
(F3.0
F9.0
g59
tp1882
tp1883
(dp1884
g16
(lp1885
F0.7749999999999999
aI4
ass(g516
(F1.0
F7.0
g59
tp1886
tp1887
(dp1888
g34
(lp1889
F0.005
aI1
asg26
(lp1890
F0.9
aI3
ass(g1031
(F9.0
F7.0
g20
tp1891
tp1892
(dp1893
g16
(lp1894
F0.15
aI4
ass(g452
(F7.0
F3.0
g18
tp1895
tp1896
(dp1897
g16
(lp1898
F0.7
aI4
ass(g49
(F9.0
F7.0
g20
tp1899
tp1900
(dp1901
g16
(lp1902
F0.7749999999999999
aI4
ass(g594
(F1.0
F3.0
g18
tp1903
tp1904
(dp1905
g8
(lp1906
F0.8500000000000001
aI2
ass(g122
(F7.0
F9.0
g20
tp1907
tp1908
(dp1909
g8
(lp1910
F0.1
aI2
ass(g1199
(F3.0
F3.0
g59
tp1911
tp1912
(dp1913
g26
(lp1914
F0.05
aI3
asg28
(lp1915
F0.05
aI3
ass(g1214
(F9.0
F1.0
g20
tp1916
tp1917
(dp1918
g34
(lp1919
F0.99
aI1
asg26
(lp1920
F0.05
aI3
asg28
(lp1921
F0.05
aI3
ass(g327
(F5.0
F5.0
g59
tp1922
tp1923
(dp1924
g16
(lp1925
F0.7
aI4
ass(g491
(F7.0
F9.0
g1
tp1926
tp1927
(dp1928
g34
(lp1929
F0.005
aI1
asg26
(lp1930
F0.9
aI3
ass(g442
(F3.0
F7.0
g59
tp1931
tp1932
(dp1933
g34
(lp1934
F0.005
aI1
asg26
(lp1935
F0.9
aI3
ass(g811
(F7.0
F3.0
g1
tp1936
tp1937
(dp1938
g16
(lp1939
F0.225
aI4
ass(g1253
(F9.0
F9.0
g1
tp1940
tp1941
(dp1942
g34
(lp1943
F0.99
aI1
asg26
(lp1944
F0.05
aI3
asg28
(lp1945
F0.05
aI3
ass(g38
(F7.0
F3.0
g1
tp1946
tp1947
(dp1948
g8
(lp1949
F0.1
aI2
ass(g110
(F5.0
F5.0
g59
tp1950
tp1951
(dp1952
g8
(lp1953
F0.1
aI2
ass(g601
(F7.0
F3.0
g1
tp1954
tp1955
(dp1956
g16
(lp1957
F0.7
aI4
ass(g199
(F1.0
F5.0
g18
tp1958
tp1959
(dp1960
g8
(lp1961
F0.1
aI2
ass(g1149
(F1.0
F5.0
g59
tp1962
tp1963
(dp1964
g8
(lp1965
F0.1
aI2
ass(g43
(F1.0
F9.0
g18
tp1966
tp1967
(dp1968
g26
(lp1969
F0.05
aI3
asg28
(lp1970
F0.05
aI3
ass(g19
(F3.0
F3.0
g18
tp1971
tp1972
(dp1973
g16
(lp1974
F0.7
aI4
ass(g1253
(F7.0
F7.0
g1
tp1975
tp1976
(dp1977
g16
(lp1978
F0.225
aI4
ass(g665
(F1.0
F9.0
g18
tp1979
tp1980
(dp1981
g16
(lp1982
F0.7749999999999999
aI4
ass(g442
(F3.0
F5.0
g20
tp1983
tp1984
(dp1985
g16
(lp1986
F0.7
aI4
ass(g10
(F3.0
F7.0
g18
tp1987
tp1988
(dp1989
g34
(lp1990
F0.005
aI1
asg28
(lp1991
F0.9
aI3
ass(g297
(F1.0
F5.0
g1
tp1992
tp1993
(dp1994
g34
(lp1995
F0.005
aI1
asg28
(lp1996
F0.9
aI3
ass(g297
(F1.0
F5.0
g18
tp1997
tp1998
(dp1999
g26
(lp2000
F0.05
aI3
asg28
(lp2001
F0.05
aI3
ass(g281
(F7.0
F3.0
g59
tp2002
tp2003
(dp2004
g16
(lp2005
F0.7
aI4
ass(g171
(F3.0
F5.0
g20
tp2006
tp2007
(dp2008
g8
(lp2009
F0.15
aI2
ass(g641
(F7.0
F9.0
g20
tp2010
tp2011
(dp2012
g8
(lp2013
F0.8
aI2
ass(g377
(F1.0
F3.0
g1
tp2014
tp2015
(dp2016
g26
(lp2017
F0.05
aI3
asg28
(lp2018
F0.05
aI3
ass(g1199
(F5.0
F1.0
g1
tp2019
tp2020
(dp2021
g8
(lp2022
F0.1
aI2
ass(g574
(F9.0
F5.0
g18
tp2023
tp2024
(dp2025
g26
(lp2026
F0.05
aI3
asg28
(lp2027
F0.05
aI3
ass(g894
(F9.0
F5.0
g18
tp2028
tp2029
(dp2030
g34
(lp2031
F0.005
aI1
asg28
(lp2032
F0.9
aI3
ass(g1149
(F3.0
F3.0
g59
tp2033
tp2034
(dp2035
g34
(lp2036
F0.99
aI1
asg26
(lp2037
F0.05
aI3
asg28
(lp2038
F0.05
aI3
ass(g641
(F7.0
F7.0
g59
tp2039
tp2040
(dp2041
g34
(lp2042
F0.005
aI1
asg26
(lp2043
F0.9
aI3
ass(g274
(F9.0
F9.0
g1
tp2044
tp2045
(dp2046
g8
(lp2047
F0.1
aI2
ass(g917
(F7.0
F7.0
g59
tp2048
tp2049
(dp2050
g16
(lp2051
F0.15
aI4
ass((F3.0
F9.0
g18
tp2052
(F3.0
F9.0
g1
tp2053
tp2054
(dp2055
g34
(lp2056
F0.005
aI1
asg26
(lp2057
F0.9
aI3
ass(g665
(F1.0
F7.0
g1
tp2058
tp2059
(dp2060
g34
(lp2061
F0.005
aI1
asg26
(lp2062
F0.9
aI3
ass(g144
(F7.0
F7.0
g59
tp2063
tp2064
(dp2065
g34
(lp2066
F0.005
aI1
asg28
(lp2067
F0.9
aI3
ass(g160
(F1.0
F1.0
g18
tp2068
tp2069
(dp2070
g26
(lp2071
F0.05
aI3
asg28
(lp2072
F0.05
aI3
ass(g601
(F9.0
F3.0
g18
tp2073
tp2074
(dp2075
g34
(lp2076
F0.005
aI1
asg28
(lp2077
F0.9
aI3
ass(g10
(F5.0
F7.0
g1
tp2078
tp2079
(dp2080
g8
(lp2081
F0.8
aI2
ass(g268
(F7.0
F5.0
g1
tp2082
tp2083
(dp2084
g16
(lp2085
F0.15
aI4
ass(g988
(F7.0
F5.0
g18
tp2086
tp2087
(dp2088
g16
(lp2089
F0.7
aI4
ass(g327
(F3.0
F5.0
g18
tp2090
tp2091
(dp2092
g34
(lp2093
F0.005
aI1
asg26
(lp2094
F0.9
aI3
ass(g377
(F3.0
F1.0
g59
tp2095
tp2096
(dp2097
g16
(lp2098
F0.15
aI4
ass(g160
(F1.0
F1.0
g59
tp2099
tp2100
(dp2101
g34
(lp2102
F0.005
aI1
asg26
(lp2103
F0.9
aI3
ass(g149
(F7.0
F7.0
g59
tp2104
tp2105
(dp2106
g16
(lp2107
F0.7
aI4
ass(g491
(F5.0
F7.0
g18
tp2108
tp2109
(dp2110
g8
(lp2111
F0.1
aI2
ass(g222
(F3.0
F3.0
g1
tp2112
tp2113
(dp2114
g34
(lp2115
F0.005
aI1
asg26
(lp2116
F0.9
aI3
ass(g820
(F3.0
F3.0
g59
tp2117
tp2118
(dp2119
g16
(lp2120
F0.225
aI4
ass(g194
(F9.0
F3.0
g20
tp2121
tp2122
(dp2123
g34
(lp2124
F0.99
aI1
asg26
(lp2125
F0.05
aI3
asg28
(lp2126
F0.05
aI3
ass(g194
(F9.0
F3.0
g1
tp2127
tp2128
(dp2129
g34
(lp2130
F0.005
aI1
asg28
(lp2131
F0.9
aI3
ass(g71
(F3.0
F1.0
g18
tp2132
tp2133
(dp2134
g34
(lp2135
F0.005
aI1
asg26
(lp2136
F0.9
aI3
ass(g442
(F5.0
F5.0
g20
tp2137
tp2138
(dp2139
g16
(lp2140
F0.15
aI4
ass(g332
(F5.0
F1.0
g20
tp2141
tp2142
(dp2143
g16
(lp2144
F0.15
aI4
ass(g54
(F5.0
F9.0
g18
tp2145
tp2146
(dp2147
g34
(lp2148
F0.99
aI1
asg26
(lp2149
F0.05
aI3
asg28
(lp2150
F0.05
aI3
ass(g569
(F5.0
F1.0
g59
tp2151
tp2152
(dp2153
g26
(lp2154
F0.05
aI3
asg28
(lp2155
F0.05
aI3
ass(g1199
(F3.0
F3.0
g18
tp2156
tp2157
(dp2158
g34
(lp2159
F0.005
aI1
asg28
(lp2160
F0.9
aI3
ass(g584
(F7.0
F5.0
g1
tp2161
tp2162
(dp2163
g34
(lp2164
F0.99
aI1
asg26
(lp2165
F0.05
aI3
asg28
(lp2166
F0.05
aI3
ass(g134
(F3.0
F3.0
g20
tp2167
tp2168
(dp2169
g16
(lp2170
F0.15
aI4
ass(g30
(F1.0
F1.0
g18
tp2171
tp2172
(dp2173
g8
(lp2174
F0.8500000000000001
aI2
ass(g377
(F1.0
F3.0
g18
tp2175
tp2176
(dp2177
g34
(lp2178
F0.005
aI1
asg26
(lp2179
F0.9
aI3
ass(g248
(F7.0
F3.0
g20
tp2180
tp2181
(dp2182
g16
(lp2183
F0.7
aI4
ass(g718
(F5.0
F9.0
g1
tp2184
tp2185
(dp2186
g26
(lp2187
F0.05
aI3
asg28
(lp2188
F0.05
aI3
ass(g205
(F1.0
F1.0
g59
tp2189
tp2190
(dp2191
g26
(lp2192
F0.05
aI3
asg28
(lp2193
F0.05
aI3
ass(g199
(F3.0
F9.0
g18
tp2194
tp2195
(dp2196
g16
(lp2197
F0.7
aI4
ass(g607
(F9.0
F1.0
g18
tp2198
tp2199
(dp2200
g8
(lp2201
F0.8500000000000001
aI2
ass(g65
(F9.0
F7.0
g59
tp2202
tp2203
(dp2204
g34
(lp2205
F0.99
aI1
asg26
(lp2206
F0.05
aI3
asg28
(lp2207
F0.05
aI3
ass(g94
(F3.0
F1.0
g20
tp2208
tp2209
(dp2210
g34
(lp2211
F0.005
aI1
asg26
(lp2212
F0.9
aI3
ass(g94
(F5.0
F1.0
g1
tp2213
tp2214
(dp2215
g8
(lp2216
F0.8500000000000001
aI2
ass(g988
(F5.0
F1.0
g18
tp2217
tp2218
(dp2219
g8
(lp2220
F0.1
aI2
ass(g1454
(F7.0
F5.0
g20
tp2221
tp2222
(dp2223
g16
(lp2224
F0.225
aI4
ass(g104
(F5.0
F3.0
g18
tp2225
tp2226
(dp2227
g8
(lp2228
F0.1
aI2
ass(g134
(F5.0
F5.0
g1
tp2229
tp2230
(dp2231
g34
(lp2232
F0.005
aI1
asg28
(lp2233
F0.9
aI3
ass(g680
(F5.0
F5.0
g20
tp2234
tp2235
(dp2236
g8
(lp2237
F0.8
aI2
ass(g242
(F7.0
F9.0
g18
tp2238
tp2239
(dp2240
g34
(lp2241
F0.005
aI1
asg28
(lp2242
F0.9
aI3
ass(g134
(F5.0
F5.0
g59
tp2243
tp2244
(dp2245
g34
(lp2246
F0.005
aI1
asg26
(lp2247
F0.9
aI3
ass(g845
(F3.0
F5.0
g1
tp2248
tp2249
(dp2250
g16
(lp2251
F0.15
aI4
ass(g622
(F7.0
F1.0
g20
tp2252
tp2253
(dp2254
g34
(lp2255
F0.005
aI1
asg28
(lp2256
F0.9
aI3
ass(g718
(F5.0
F9.0
g59
tp2257
tp2258
(dp2259
g34
(lp2260
F0.99
aI1
asg26
(lp2261
F0.05
aI3
asg28
(lp2262
F0.05
aI3
ass(g680
(F5.0
F3.0
g59
tp2263
tp2264
(dp2265
g34
(lp2266
F0.005
aI1
asg26
(lp2267
F0.9
aI3
ass(g104
(F1.0
F7.0
g18
tp2268
tp2269
(dp2270
g16
(lp2271
F0.15
aI4
ass(g728
(F9.0
F7.0
g18
tp2272
tp2273
(dp2274
g16
(lp2275
F0.15
aI4
ass(g99
(F9.0
F7.0
g1
tp2276
tp2277
(dp2278
g34
(lp2279
F0.005
aI1
asg26
(lp2280
F0.9
aI3
ass(g2
(F3.0
F7.0
g1
tp2281
tp2282
(dp2283
g8
(lp2284
F0.1
aI2
ass(g49
(F9.0
F9.0
g59
tp2285
tp2286
(dp2287
g34
(lp2288
F0.005
aI1
asg26
(lp2289
F0.9
aI3
ass(g880
(F3.0
F9.0
g1
tp2290
tp2291
(dp2292
g34
(lp2293
F0.005
aI1
asg28
(lp2294
F0.9
aI3
ass(g199
(F1.0
F9.0
g18
tp2295
tp2296
(dp2297
g16
(lp2298
F0.15
aI4
ass(g1199
(F1.0
F3.0
g1
tp2299
tp2300
(dp2301
g16
(lp2302
F0.7
aI4
ass(g728
(F5.0
F7.0
g18
tp2303
tp2304
(dp2305
g16
(lp2306
F0.15
aI4
ass(g128
(F9.0
F1.0
g20
tp2307
tp2308
(dp2309
g26
(lp2310
F0.05
aI3
asg28
(lp2311
F0.05
aI3
ass(g665
(F1.0
F7.0
g18
tp2312
tp2313
(dp2314
g34
(lp2315
F0.99
aI1
asg26
(lp2316
F0.05
aI3
asg28
(lp2317
F0.05
aI3
ass(g1577
(F7.0
F7.0
g59
tp2318
tp2319
(dp2320
g8
(lp2321
F0.15
aI2
ass(g353
(F5.0
F9.0
g59
tp2322
tp2323
(dp2324
g34
(lp2325
F0.005
aI1
asg26
(lp2326
F0.9
aI3
ass(g680
(F3.0
F5.0
g20
tp2327
tp2328
(dp2329
g8
(lp2330
F0.1
aI2
ass(g728
(F7.0
F7.0
g18
tp2331
tp2332
(dp2333
g16
(lp2334
F0.7
aI4
ass(g76
(F7.0
F5.0
g18
tp2335
tp2336
(dp2337
g16
(lp2338
F0.15
aI4
ass(g10
(F1.0
F9.0
g1
tp2339
tp2340
(dp2341
g16
(lp2342
F0.15
aI4
ass(g447
(F7.0
F7.0
g1
tp2343
tp2344
(dp2345
g8
(lp2346
F0.15
aI2
ass(g65
(F9.0
F7.0
g1
tp2347
tp2348
(dp2349
g26
(lp2350
F0.05
aI3
asg28
(lp2351
F0.05
aI3
ass(g647
(F1.0
F9.0
g20
tp2352
tp2353
(dp2354
g34
(lp2355
F0.005
aI1
asg28
(lp2356
F0.9
aI3
ass(g424
(F9.0
F3.0
g59
tp2357
tp2358
(dp2359
g34
(lp2360
F0.99
aI1
asg26
(lp2361
F0.05
aI3
asg28
(lp2362
F0.05
aI3
ass(g429
(F3.0
F1.0
g59
tp2363
tp2364
(dp2365
g34
(lp2366
F0.005
aI1
asg26
(lp2367
F0.9
aI3
ass(g297
(F1.0
F3.0
g20
tp2368
tp2369
(dp2370
g16
(lp2371
F0.7749999999999999
aI4
ass(g607
(F7.0
F1.0
g18
tp2372
tp2373
(dp2374
g8
(lp2375
F0.15
aI2
ass(g255
(F3.0
F3.0
g59
tp2376
tp2377
(dp2378
g8
(lp2379
F0.15
aI2
ass(g574
(F7.0
F7.0
g20
tp2380
tp2381
(dp2382
g8
(lp2383
F0.15
aI2
ass(g19
(F1.0
F3.0
g18
tp2384
tp2385
(dp2386
g16
(lp2387
F0.15
aI4
ass(g199
(F3.0
F5.0
g18
tp2388
tp2389
(dp2390
g8
(lp2391
F0.8
aI2
ass(g281
(F3.0
F3.0
g59
tp2392
tp2393
(dp2394
g8
(lp2395
F0.8
aI2
ass(g71
(F3.0
F1.0
g20
tp2396
tp2397
(dp2398
g34
(lp2399
F0.005
aI1
asg28
(lp2400
F0.9
aI3
ass(g845
(F7.0
F5.0
g1
tp2401
tp2402
(dp2403
g8
(lp2404
F0.1
aI2
ass(g1177
(F5.0
F1.0
g59
tp2405
tp2406
(dp2407
g34
(lp2408
F0.005
aI1
asg26
(lp2409
F0.9
aI3
ass(g468
(F1.0
F7.0
g20
tp2410
tp2411
(dp2412
g34
(lp2413
F0.005
aI1
asg28
(lp2414
F0.9
aI3
ass(g1149
(F3.0
F3.0
g18
tp2415
tp2416
(dp2417
g34
(lp2418
F0.005
aI1
asg26
(lp2419
F0.9
aI3
ass(g38
(F7.0
F5.0
g1
tp2420
tp2421
(dp2422
g8
(lp2423
F0.8
aI2
ass(g248
(F5.0
F7.0
g20
tp2424
tp2425
(dp2426
g8
(lp2427
F0.1
aI2
ass(g1149
(F5.0
F5.0
g59
tp2428
tp2429
(dp2430
g16
(lp2431
F0.15
aI4
ass(g398
(F1.0
F7.0
g20
tp2432
tp2433
(dp2434
g34
(lp2435
F0.005
aI1
asg26
(lp2436
F0.9
aI3
ass(g60
(F7.0
F1.0
g59
tp2437
tp2438
(dp2439
g8
(lp2440
F0.8500000000000001
aI2
ass(g1199
(F1.0
F5.0
g1
tp2441
tp2442
(dp2443
g16
(lp2444
F0.15
aI4
ass(g222
(F5.0
F5.0
g18
tp2445
tp2446
(dp2447
g16
(lp2448
F0.15
aI4
ass(g461
(F3.0
F7.0
g1
tp2449
tp2450
(dp2451
g8
(lp2452
F0.15
aI2
ass(g178
(F7.0
F7.0
g18
tp2453
tp2454
(dp2455
g16
(lp2456
F0.15
aI4
ass(g160
(F1.0
F1.0
g1
tp2457
tp2458
(dp2459
g34
(lp2460
F0.005
aI1
asg28
(lp2461
F0.9
aI3
ass(g171
(F1.0
F5.0
g20
tp2462
tp2463
(dp2464
g8
(lp2465
F0.8500000000000001
aI2
ass(g139
(F1.0
F3.0
g20
tp2466
tp2467
(dp2468
g16
(lp2469
F0.15
aI4
ass(g845
(F5.0
F7.0
g1
tp2470
tp2471
(dp2472
g34
(lp2473
F0.99
aI1
asg26
(lp2474
F0.05
aI3
asg28
(lp2475
F0.05
aI3
ass(g1454
(F9.0
F7.0
g59
tp2476
tp2477
(dp2478
g34
(lp2479
F0.005
aI1
asg26
(lp2480
F0.9
aI3
ass(g526
(F5.0
F1.0
g1
tp2481
tp2482
(dp2483
g16
(lp2484
F0.15
aI4
ass(g30
(F1.0
F3.0
g59
tp2485
tp2486
(dp2487
g34
(lp2488
F0.005
aI1
asg28
(lp2489
F0.9
aI3
ass(g139
(F3.0
F5.0
g18
tp2490
tp2491
(dp2492
g26
(lp2493
F0.05
aI3
asg28
(lp2494
F0.05
aI3
ass(g584
(F5.0
F5.0
g1
tp2495
tp2496
(dp2497
g16
(lp2498
F0.7
aI4
ass(g607
(F9.0
F3.0
g20
tp2499
tp2500
(dp2501
g26
(lp2502
F0.05
aI3
asg28
(lp2503
F0.05
aI3
ass(g574
(F9.0
F5.0
g59
tp2504
tp2505
(dp2506
g34
(lp2507
F0.005
aI1
asg26
(lp2508
F0.9
aI3
ass(g155
(F9.0
F3.0
g59
tp2509
tp2510
(dp2511
g16
(lp2512
F0.7
aI4
ass(g353
(F3.0
F7.0
g20
tp2513
tp2514
(dp2515
g16
(lp2516
F0.15
aI4
ass(g144
(F5.0
F9.0
g18
tp2517
tp2518
(dp2519
g16
(lp2520
F0.15
aI4
ass(g584
(F7.0
F5.0
g20
tp2521
tp2522
(dp2523
g34
(lp2524
F0.005
aI1
asg26
(lp2525
F0.9
aI3
ass(g1149
(F5.0
F1.0
g59
tp2526
tp2527
(dp2528
g16
(lp2529
F0.15
aI4
ass(g81
(F5.0
F1.0
g59
tp2530
tp2531
(dp2532
g34
(lp2533
F0.005
aI1
asg28
(lp2534
F0.9
aI3
ass(g1235
(F5.0
F5.0
g59
tp2535
tp2536
(dp2537
g8
(lp2538
F0.8
aI2
ass(g1149
(F3.0
F3.0
g1
tp2539
tp2540
(dp2541
g26
(lp2542
F0.05
aI3
asg28
(lp2543
F0.05
aI3
ass(g227
(F1.0
F7.0
g59
tp2544
tp2545
(dp2546
g8
(lp2547
F0.15
aI2
ass(g1654
(F1.0
F1.0
g1
tp2548
tp2549
(dp2550
g34
(lp2551
F0.005
aI1
asg26
(lp2552
F0.9
aI3
ass(g1350
(F5.0
F3.0
g1
tp2553
tp2554
(dp2555
g8
(lp2556
F0.1
aI2
ass(g199
(F5.0
F9.0
g18
tp2557
tp2558
(dp2559
g16
(lp2560
F0.15
aI4
ass(g43
(F1.0
F9.0
g20
tp2561
tp2562
(dp2563
g34
(lp2564
F0.99
aI1
asg26
(lp2565
F0.05
aI3
asg28
(lp2566
F0.05
aI3
ass(g1177
(F5.0
F1.0
g1
tp2567
tp2568
(dp2569
g34
(lp2570
F0.005
aI1
asg28
(lp2571
F0.9
aI3
ass(g307
(F3.0
F7.0
g59
tp2572
tp2573
(dp2574
g16
(lp2575
F0.15
aI4
ass(g758
(F7.0
F1.0
g59
tp2576
tp2577
(dp2578
g26
(lp2579
F0.05
aI3
asg28
(lp2580
F0.05
aI3
ass(g526
(F7.0
F3.0
g20
tp2581
tp2582
(dp2583
g34
(lp2584
F0.005
aI1
asg26
(lp2585
F0.9
aI3
ass(g149
(F7.0
F9.0
g59
tp2586
tp2587
(dp2588
g16
(lp2589
F0.15
aI4
ass(g1177
(F5.0
F1.0
g18
tp2590
tp2591
(dp2592
g26
(lp2593
F0.05
aI3
asg28
(lp2594
F0.05
aI3
ass(g804
(F9.0
F7.0
g18
tp2595
tp2596
(dp2597
g16
(lp2598
F0.7749999999999999
aI4
ass(g894
(F7.0
F3.0
g1
tp2599
tp2600
(dp2601
g16
(lp2602
F0.15
aI4
ass(g281
(F3.0
F1.0
g59
tp2603
tp2604
(dp2605
g8
(lp2606
F0.1
aI2
ass(g1350
(F1.0
F7.0
g1
tp2607
tp2608
(dp2609
g16
(lp2610
F0.15
aI4
ass(g468
(F3.0
F5.0
g59
tp2611
tp2612
(dp2613
g16
(lp2614
F0.15
aI4
ass(g680
(F5.0
F3.0
g1
tp2615
tp2616
(dp2617
g34
(lp2618
F0.005
aI1
asg28
(lp2619
F0.9
aI3
ass(g1654
(F1.0
F1.0
g59
tp2620
tp2621
(dp2622
g34
(lp2623
F0.005
aI1
asg28
(lp2624
F0.9
aI3
ass(g327
(F3.0
F5.0
g1
tp2625
tp2626
(dp2627
g26
(lp2628
F0.05
aI3
asg28
(lp2629
F0.05
aI3
ass(g19
(F5.0
F3.0
g18
tp2630
tp2631
(dp2632
g16
(lp2633
F0.15
aI4
ass(g104
(F3.0
F5.0
g59
tp2634
tp2635
(dp2636
g34
(lp2637
F0.005
aI1
asg28
(lp2638
F0.9
aI3
ass(g281
(F5.0
F3.0
g59
tp2639
tp2640
(dp2641
g34
(lp2642
F0.99
aI1
asg26
(lp2643
F0.05
aI3
asg28
(lp2644
F0.05
aI3
ass(g99
(F9.0
F5.0
g18
tp2645
tp2646
(dp2647
g8
(lp2648
F0.8500000000000001
aI2
ass(g38
(F3.0
F3.0
g1
tp2649
tp2650
(dp2651
g16
(lp2652
F0.15
aI4
ass(g222
(F3.0
F3.0
g20
tp2653
tp2654
(dp2655
g26
(lp2656
F0.05
aI3
asg28
(lp2657
F0.05
aI3
ass(g526
(F9.0
F5.0
g1
tp2658
tp2659
(dp2660
g8
(lp2661
F0.1
aI2
ass(g65
(F9.0
F7.0
g20
tp2662
tp2663
(dp2664
g34
(lp2665
F0.005
aI1
asg28
(lp2666
F0.9
aI3
ass(g641
(F7.0
F5.0
g20
tp2667
tp2668
(dp2669
g16
(lp2670
F0.7
aI4
ass(g1372
(F1.0
F3.0
g1
tp2671
tp2672
(dp2673
g34
(lp2674
F0.99
aI1
asg26
(lp2675
F0.05
aI3
asg28
(lp2676
F0.05
aI3
ass(g139
(F3.0
F3.0
g20
tp2677
tp2678
(dp2679
g16
(lp2680
F0.7
aI4
ass(g491
(F7.0
F7.0
g18
tp2681
tp2682
(dp2683
g8
(lp2684
F0.8
aI2
ass(g1235
(F9.0
F3.0
g59
tp2685
tp2686
(dp2687
g16
(lp2688
F0.15
aI4
ass(g1177
(F5.0
F3.0
g20
tp2689
tp2690
(dp2691
g8
(lp2692
F0.8
aI2
ass(g194
(F7.0
F1.0
g20
tp2693
tp2694
(dp2695
g16
(lp2696
F0.225
aI4
ass(g1149
(F3.0
F3.0
g20
tp2697
tp2698
(dp2699
g34
(lp2700
F0.005
aI1
asg28
(lp2701
F0.9
aI3
ass(g988
(F9.0
F5.0
g18
tp2702
tp2703
(dp2704
g16
(lp2705
F0.15
aI4
ass(g1031
(F7.0
F9.0
g59
tp2706
tp2707
(dp2708
g34
(lp2709
F0.005
aI1
asg26
(lp2710
F0.9
aI3
ass(g424
(F9.0
F3.0
g1
tp2711
tp2712
(dp2713
g26
(lp2714
F0.05
aI3
asg28
(lp2715
F0.05
aI3
ass(g222
(F3.0
F5.0
g18
tp2716
tp2717
(dp2718
g16
(lp2719
F0.7
aI4
ass(g461
(F1.0
F9.0
g20
tp2720
tp2721
(dp2722
g34
(lp2723
F0.005
aI1
asg26
(lp2724
F0.9
aI3
ass(g594
(F1.0
F5.0
g1
tp2725
tp2726
(dp2727
g34
(lp2728
F0.005
aI1
asg26
(lp2729
F0.9
aI3
ass(g917
(F3.0
F3.0
g59
tp2730
tp2731
(dp2732
g8
(lp2733
F0.1
aI2
ass(g71
(F5.0
F3.0
g59
tp2734
tp2735
(dp2736
g16
(lp2737
F0.225
aI4
ass(g81
(F7.0
F3.0
g18
tp2738
tp2739
(dp2740
g16
(lp2741
F0.15
aI4
ass(g363
(F3.0
F3.0
g20
tp2742
tp2743
(dp2744
g34
(lp2745
F0.99
aI1
asg26
(lp2746
F0.05
aI3
asg28
(lp2747
F0.05
aI3
ass(g516
(F1.0
F7.0
g1
tp2748
tp2749
(dp2750
g34
(lp2751
F0.005
aI1
asg28
(lp2752
F0.9
aI3
ass(g327
(F1.0
F5.0
g59
tp2753
tp2754
(dp2755
g8
(lp2756
F0.8
aI2
ass(g281
(F3.0
F5.0
g59
tp2757
tp2758
(dp2759
g8
(lp2760
F0.1
aI2
ass(g734
(F7.0
F1.0
g1
tp2761
tp2762
(dp2763
g8
(lp2764
F0.1
aI2
ass(g424
(F7.0
F3.0
g59
tp2765
tp2766
(dp2767
g8
(lp2768
F0.8
aI2
ass(g880
(F5.0
F7.0
g20
tp2769
tp2770
(dp2771
g16
(lp2772
F0.15
aI4
ass(g1253
(F7.0
F9.0
g1
tp2773
tp2774
(dp2775
g16
(lp2776
F0.7749999999999999
aI4
ass(g332
(F9.0
F5.0
g20
tp2777
tp2778
(dp2779
g8
(lp2780
F0.1
aI2
ass(g758
(F7.0
F1.0
g1
tp2781
tp2782
(dp2783
g34
(lp2784
F0.99
aI1
asg26
(lp2785
F0.05
aI3
asg28
(lp2786
F0.05
aI3
ass(g1149
(F5.0
F3.0
g59
tp2787
tp2788
(dp2789
g16
(lp2790
F0.7
aI4
ass(g1654
(F1.0
F1.0
g20
tp2791
tp2792
(dp2793
g26
(lp2794
F0.05
aI3
asg28
(lp2795
F0.05
aI3
ass(g205
(F1.0
F1.0
g1
tp2796
tp2797
(dp2798
g34
(lp2799
F0.99
aI1
asg26
(lp2800
F0.05
aI3
asg28
(lp2801
F0.05
aI3
ass(g178
(F5.0
F5.0
g1
tp2802
tp2803
(dp2804
g34
(lp2805
F0.005
aI1
asg26
(lp2806
F0.9
aI3
ass(g880
(F3.0
F9.0
g59
tp2807
tp2808
(dp2809
g34
(lp2810
F0.005
aI1
asg26
(lp2811
F0.9
aI3
ass(g845
(F3.0
F7.0
g1
tp2812
tp2813
(dp2814
g16
(lp2815
F0.7
aI4
ass(g262
(F5.0
F9.0
g59
tp2816
tp2817
(dp2818
g16
(lp2819
F0.15
aI4
ass(g19
(F3.0
F1.0
g1
tp2820
tp2821
(dp2822
g34
(lp2823
F0.005
aI1
asg26
(lp2824
F0.9
aI3
ass(g110
(F9.0
F7.0
g59
tp2825
tp2826
(dp2827
g16
(lp2828
F0.7
aI4
ass(g377
(F3.0
F5.0
g59
tp2829
tp2830
(dp2831
g16
(lp2832
F0.15
aI4
ass(g1253
(F9.0
F9.0
g18
tp2833
tp2834
(dp2835
g34
(lp2836
F0.005
aI1
asg28
(lp2837
F0.9
aI3
ass(g728
(F9.0
F3.0
g18
tp2838
tp2839
(dp2840
g8
(lp2841
F0.1
aI2
ass(g491
(F9.0
F7.0
g18
tp2842
tp2843
(dp2844
g8
(lp2845
F0.1
aI2
ass(g110
(F9.0
F5.0
g59
tp2846
tp2847
(dp2848
g16
(lp2849
F0.15
aI4
ass(g526
(F5.0
F3.0
g1
tp2850
tp2851
(dp2852
g16
(lp2853
F0.7
aI4
ass(g88
(F9.0
F7.0
g59
tp2854
tp2855
(dp2856
g16
(lp2857
F0.225
aI4
ass(g447
(F3.0
F7.0
g1
tp2858
tp2859
(dp2860
g16
(lp2861
F0.225
aI4
ass(g452
(F7.0
F1.0
g59
tp2862
tp2863
(dp2864
g34
(lp2865
F0.005
aI1
asg28
(lp2866
F0.9
aI3
ass(g286
(F5.0
F3.0
g20
tp2867
tp2868
(dp2869
g8
(lp2870
F0.1
aI2
ass(g734
(F5.0
F3.0
g1
tp2871
tp2872
(dp2873
g34
(lp2874
F0.99
aI1
asg26
(lp2875
F0.05
aI3
asg28
(lp2876
F0.05
aI3
ass(g584
(F5.0
F3.0
g1
tp2877
tp2878
(dp2879
g16
(lp2880
F0.15
aI4
ass(g1199
(F3.0
F3.0
g20
tp2881
tp2882
(dp2883
g34
(lp2884
F0.005
aI1
asg26
(lp2885
F0.9
aI3
ass(g71
(F1.0
F1.0
g59
tp2886
tp2887
(dp2888
g8
(lp2889
F0.8500000000000001
aI2
ass(g917
(F5.0
F5.0
g59
tp2890
tp2891
(dp2892
g34
(lp2893
F0.99
aI1
asg26
(lp2894
F0.05
aI3
asg28
(lp2895
F0.05
aI3
ass(g758
(F9.0
F1.0
g1
tp2896
tp2897
(dp2898
g8
(lp2899
F0.8500000000000001
aI2
ass(g363
(F3.0
F3.0
g1
tp2900
tp2901
(dp2902
g34
(lp2903
F0.005
aI1
asg28
(lp2904
F0.9
aI3
ass(g569
(F5.0
F1.0
g18
tp2905
tp2906
(dp2907
g34
(lp2908
F0.005
aI1
asg28
(lp2909
F0.9
aI3
ass(g217
(F9.0
F5.0
g59
tp2910
tp2911
(dp2912
g34
(lp2913
F0.99
aI1
asg26
(lp2914
F0.05
aI3
asg28
(lp2915
F0.05
aI3
ass(g1577
(F9.0
F9.0
g1
tp2916
tp2917
(dp2918
g26
(lp2919
F0.05
aI3
asg28
(lp2920
F0.05
aI3
ass(g2
(F1.0
F5.0
g1
tp2921
tp2922
(dp2923
g34
(lp2924
F0.99
aI1
asg26
(lp2925
F0.05
aI3
asg28
(lp2926
F0.05
aI3
ass(g377
(F1.0
F3.0
g20
tp2927
tp2928
(dp2929
g34
(lp2930
F0.005
aI1
asg28
(lp2931
F0.9
aI3
ass(g81
(F5.0
F1.0
g1
tp2932
tp2933
(dp2934
g34
(lp2935
F0.005
aI1
asg26
(lp2936
F0.9
aI3
ass(g222
(F1.0
F5.0
g18
tp2937
tp2938
(dp2939
g16
(lp2940
F0.15
aI4
ass(g594
(F1.0
F5.0
g59
tp2941
tp2942
(dp2943
g34
(lp2944
F0.005
aI1
asg28
(lp2945
F0.9
aI3
ass(g447
(F5.0
F9.0
g1
tp2946
tp2947
(dp2948
g34
(lp2949
F0.99
aI1
asg26
(lp2950
F0.05
aI3
asg28
(lp2951
F0.05
aI3
ass(g641
(F7.0
F7.0
g20
tp2952
tp2953
(dp2954
g34
(lp2955
F0.99
aI1
asg26
(lp2956
F0.05
aI3
asg28
(lp2957
F0.05
aI3
ass(g116
(F5.0
F7.0
g20
tp2958
tp2959
(dp2960
g26
(lp2961
F0.05
aI3
asg28
(lp2962
F0.05
aI3
ass(g1454
(F9.0
F9.0
g20
tp2963
tp2964
(dp2965
g8
(lp2966
F0.8500000000000001
aI2
ass(g1350
(F1.0
F5.0
g1
tp2967
tp2968
(dp2969
g16
(lp2970
F0.7
aI4
ass(g1253
(F9.0
F9.0
g20
tp2971
tp2972
(dp2973
g34
(lp2974
F0.005
aI1
asg26
(lp2975
F0.9
aI3
ass(g880
(F1.0
F7.0
g20
tp2976
tp2977
(dp2978
g16
(lp2979
F0.15
aI4
ass(g227
(F5.0
F7.0
g59
tp2980
tp2981
(dp2982
g16
(lp2983
F0.225
aI4
ass(g1235
(F7.0
F5.0
g18
tp2984
tp2985
(dp2986
g34
(lp2987
F0.005
aI1
asg26
(lp2988
F0.9
aI3
ass(g122
(F5.0
F9.0
g20
tp2989
tp2990
(dp2991
g8
(lp2992
F0.8
aI2
ass(g144
(F9.0
F9.0
g18
tp2993
tp2994
(dp2995
g16
(lp2996
F0.15
aI4
ass(g917
(F5.0
F5.0
g1
tp2997
tp2998
(dp2999
g26
(lp3000
F0.05
aI3
asg28
(lp3001
F0.05
aI3
ass(g2052
(F3.0
F9.0
g59
tp3002
tp3003
(dp3004
g34
(lp3005
F0.005
aI1
asg28
(lp3006
F0.9
aI3
ass(g242
(F5.0
F9.0
g1
tp3007
tp3008
(dp3009
g16
(lp3010
F0.7749999999999999
aI4
ass(g728
(F7.0
F3.0
g18
tp3011
tp3012
(dp3013
g8
(lp3014
F0.8
aI2
ass(g144
(F5.0
F5.0
g18
tp3015
tp3016
(dp3017
g8
(lp3018
F0.1
aI2
ass(g758
(F7.0
F1.0
g20
tp3019
tp3020
(dp3021
g34
(lp3022
F0.005
aI1
asg26
(lp3023
F0.9
aI3
ass(g2
(F1.0
F5.0
g20
tp3024
tp3025
(dp3026
g34
(lp3027
F0.005
aI1
asg26
(lp3028
F0.9
aI3
ass(g734
(F3.0
F5.0
g1
tp3029
tp3030
(dp3031
g16
(lp3032
F0.15
aI4
ass(g286
(F7.0
F1.0
g18
tp3033
tp3034
(dp3035
g26
(lp3036
F0.05
aI3
asg28
(lp3037
F0.05
aI3
ass(g211
(F1.0
F9.0
g1
tp3038
tp3039
(dp3040
g34
(lp3041
F0.005
aI1
asg26
(lp3042
F0.9
aI3
ass(g1654
(F3.0
F3.0
g18
tp3043
tp3044
(dp3045
g16
(lp3046
F0.225
aI4
ass(g641
(F9.0
F5.0
g20
tp3047
tp3048
(dp3049
g16
(lp3050
F0.15
aI4
ass(g149
(F3.0
F5.0
g59
tp3051
tp3052
(dp3053
g8
(lp3054
F0.1
aI2
ass(g584
(F9.0
F3.0
g1
tp3055
tp3056
(dp3057
g8
(lp3058
F0.1
aI2
ass(g1577
(F7.0
F9.0
g59
tp3059
tp3060
(dp3061
g8
(lp3062
F0.8500000000000001
aI2
ass(g2052
(F1.0
F7.0
g18
tp3063
tp3064
(dp3065
g8
(lp3066
F0.1
aI2
ass(g248
(F9.0
F7.0
g20
tp3067
tp3068
(dp3069
g8
(lp3070
F0.1
aI2
ass(g281
(F5.0
F3.0
g1
tp3071
tp3072
(dp3073
g26
(lp3074
F0.05
aI3
asg28
(lp3075
F0.05
aI3
ass(g2052
(F3.0
F7.0
g18
tp3076
tp3077
(dp3078
g8
(lp3079
F0.8
aI2
ass(g332
(F7.0
F3.0
g18
tp3080
tp3081
(dp3082
g26
(lp3083
F0.05
aI3
asg28
(lp3084
F0.05
aI3
ass(g622
(F5.0
F1.0
g59
tp3085
tp3086
(dp3087
g8
(lp3088
F0.8500000000000001
aI2
ass(g728
(F7.0
F5.0
g59
tp3089
tp3090
(dp3091
g34
(lp3092
F0.005
aI1
asg28
(lp3093
F0.9
aI3
ass(g76
(F5.0
F3.0
g59
tp3094
tp3095
(dp3096
g34
(lp3097
F0.005
aI1
asg28
(lp3098
F0.9
aI3
ass(g205
(F3.0
F1.0
g1
tp3099
tp3100
(dp3101
g8
(lp3102
F0.8500000000000001
aI2
ass(g1350
(F3.0
F5.0
g59
tp3103
tp3104
(dp3105
g26
(lp3106
F0.05
aI3
asg28
(lp3107
F0.05
aI3
ass(g1654
(F1.0
F3.0
g18
tp3108
tp3109
(dp3110
g16
(lp3111
F0.7749999999999999
aI4
ass(g526
(F5.0
F5.0
g1
tp3112
tp3113
(dp3114
g16
(lp3115
F0.15
aI4
ass(g94
(F5.0
F3.0
g1
tp3116
tp3117
(dp3118
g8
(lp3119
F0.15
aI2
ass(g1577
(F9.0
F9.0
g20
tp3120
tp3121
(dp3122
g34
(lp3123
F0.005
aI1
asg28
(lp3124
F0.9
aI3
ass(g2052
(F5.0
F7.0
g18
tp3125
tp3126
(dp3127
g8
(lp3128
F0.1
aI2
ass(g526
(F9.0
F1.0
g1
tp3129
tp3130
(dp3131
g8
(lp3132
F0.1
aI2
ass(g1350
(F3.0
F5.0
g18
tp3133
tp3134
(dp3135
g34
(lp3136
F0.005
aI1
asg28
(lp3137
F0.9
aI3
ass(g845
(F7.0
F9.0
g1
tp3138
tp3139
(dp3140
g8
(lp3141
F0.1
aI2
ass(g122
(F5.0
F7.0
g1
tp3142
tp3143
(dp3144
g34
(lp3145
F0.005
aI1
asg28
(lp3146
F0.9
aI3
ass(g144
(F7.0
F5.0
g18
tp3147
tp3148
(dp3149
g8
(lp3150
F0.8
aI2
ass(g149
(F5.0
F7.0
g59
tp3151
tp3152
(dp3153
g34
(lp3154
F0.99
aI1
asg26
(lp3155
F0.05
aI3
asg28
(lp3156
F0.05
aI3
ass(g149
(F5.0
F7.0
g1
tp3157
tp3158
(dp3159
g26
(lp3160
F0.05
aI3
asg28
(lp3161
F0.05
aI3
ass(g155
(F7.0
F3.0
g18
tp3162
tp3163
(dp3164
g34
(lp3165
F0.005
aI1
asg26
(lp3166
F0.9
aI3
ass(g811
(F9.0
F1.0
g1
tp3167
tp3168
(dp3169
g34
(lp3170
F0.99
aI1
asg26
(lp3171
F0.05
aI3
asg28
(lp3172
F0.05
aI3
ass(g155
(F7.0
F3.0
g1
tp3173
tp3174
(dp3175
g26
(lp3176
F0.05
aI3
asg28
(lp3177
F0.05
aI3
ass(g38
(F5.0
F5.0
g20
tp3178
tp3179
(dp3180
g34
(lp3181
F0.005
aI1
asg26
(lp3182
F0.9
aI3
ass(g894
(F9.0
F5.0
g59
tp3183
tp3184
(dp3185
g26
(lp3186
F0.05
aI3
asg28
(lp3187
F0.05
aI3
ass(g665
(F1.0
F7.0
g20
tp3188
tp3189
(dp3190
g26
(lp3191
F0.05
aI3
asg28
(lp3192
F0.05
aI3
ass(g429
(F3.0
F3.0
g20
tp3193
tp3194
(dp3195
g8
(lp3196
F0.8
aI2
ass(g1235
(F7.0
F5.0
g20
tp3197
tp3198
(dp3199
g34
(lp3200
F0.005
aI1
asg28
(lp3201
F0.9
aI3
ass(g353
(F5.0
F9.0
g1
tp3202
tp3203
(dp3204
g34
(lp3205
F0.005
aI1
asg28
(lp3206
F0.9
aI3
ass(g612
(F9.0
F9.0
g59
tp3207
tp3208
(dp3209
g34
(lp3210
F0.005
aI1
asg28
(lp3211
F0.9
aI3
ass(g680
(F3.0
F1.0
g20
tp3212
tp3213
(dp3214
g16
(lp3215
F0.15
aI4
ass(g211
(F1.0
F7.0
g18
tp3216
tp3217
(dp3218
g8
(lp3219
F0.8500000000000001
aI2
ass(g1577
(F9.0
F9.0
g18
tp3220
tp3221
(dp3222
g34
(lp3223
F0.005
aI1
asg26
(lp3224
F0.9
aI3
ass(g274
(F7.0
F7.0
g18
tp3225
tp3226
(dp3227
g34
(lp3228
F0.005
aI1
asg28
(lp3229
F0.9
aI3
ass(g622
(F5.0
F3.0
g59
tp3230
tp3231
(dp3232
g8
(lp3233
F0.15
aI2
ass(g110
(F7.0
F7.0
g1
tp3234
tp3235
(dp3236
g26
(lp3237
F0.05
aI3
asg28
(lp3238
F0.05
aI3
ass(g601
(F7.0
F1.0
g1
tp3239
tp3240
(dp3241
g16
(lp3242
F0.15
aI4
ass(g134
(F5.0
F5.0
g18
tp3243
tp3244
(dp3245
g26
(lp3246
F0.05
aI3
asg28
(lp3247
F0.05
aI3
ass(g30
(F1.0
F3.0
g20
tp3248
tp3249
(dp3250
g26
(lp3251
F0.05
aI3
asg28
(lp3252
F0.05
aI3
ass(g1350
(F3.0
F5.0
g1
tp3253
tp3254
(dp3255
g34
(lp3256
F0.99
aI1
asg26
(lp3257
F0.05
aI3
asg28
(lp3258
F0.05
aI3
ass(g160
(F1.0
F3.0
g20
tp3259
tp3260
(dp3261
g8
(lp3262
F0.8500000000000001
aI2
ass(g569
(F5.0
F1.0
g20
tp3263
tp3264
(dp3265
g34
(lp3266
F0.005
aI1
asg26
(lp3267
F0.9
aI3
ass(g584
(F7.0
F5.0
g18
tp3268
tp3269
(dp3270
g34
(lp3271
F0.005
aI1
asg28
(lp3272
F0.9
aI3
ass(g601
(F7.0
F5.0
g1
tp3273
tp3274
(dp3275
g16
(lp3276
F0.15
aI4
ass(g718
(F3.0
F9.0
g59
tp3277
tp3278
(dp3279
g8
(lp3280
F0.8500000000000001
aI2
ass(g71
(F3.0
F1.0
g59
tp3281
tp3282
(dp3283
g34
(lp3284
F0.99
aI1
asg26
(lp3285
F0.05
aI3
asg28
(lp3286
F0.05
aI3
ass(g255
(F5.0
F1.0
g20
tp3287
tp3288
(dp3289
g34
(lp3290
F0.005
aI1
asg28
(lp3291
F0.9
aI3
ass(g641
(F9.0
F9.0
g20
tp3292
tp3293
(dp3294
g8
(lp3295
F0.1
aI2
ass(g268
(F7.0
F7.0
g1
tp3296
tp3297
(dp3298
g16
(lp3299
F0.7
aI4
ass(g139
(F5.0
F7.0
g20
tp3300
tp3301
(dp3302
g8
(lp3303
F0.1
aI2
ass(g281
(F5.0
F3.0
g18
tp3304
tp3305
(dp3306
g34
(lp3307
F0.005
aI1
asg26
(lp3308
F0.9
aI3
ass(g199
(F3.0
F7.0
g59
tp3309
tp3310
(dp3311
g34
(lp3312
F0.005
aI1
asg28
(lp3313
F0.9
aI3
ass(g894
(F7.0
F5.0
g1
tp3314
tp3315
(dp3316
g16
(lp3317
F0.7
aI4
ass(g811
(F9.0
F1.0
g59
tp3318
tp3319
(dp3320
g26
(lp3321
F0.05
aI3
asg28
(lp3322
F0.05
aI3
ass(g1350
(F5.0
F7.0
g1
tp3323
tp3324
(dp3325
g8
(lp3326
F0.1
aI2
ass(g811
(F9.0
F1.0
g20
tp3327
tp3328
(dp3329
g34
(lp3330
F0.005
aI1
asg26
(lp3331
F0.9
aI3
ass(g116
(F5.0
F5.0
g18
tp3332
tp3333
(dp3334
g8
(lp3335
F0.8
aI2
ass(g2052
(F3.0
F9.0
g20
tp3336
tp3337
(dp3338
g26
(lp3339
F0.05
aI3
asg28
(lp3340
F0.05
aI3
ass(g2052
(F3.0
F9.0
g18
tp3341
tp3342
(dp3343
g34
(lp3344
F0.99
aI1
asg26
(lp3345
F0.05
aI3
asg28
(lp3346
F0.05
aI3
ass(g88
(F7.0
F9.0
g20
tp3347
tp3348
(dp3349
g34
(lp3350
F0.005
aI1
asg28
(lp3351
F0.9
aI3
ass(g128
(F7.0
F3.0
g18
tp3352
tp3353
(dp3354
g16
(lp3355
F0.225
aI4
ass(g804
(F7.0
F3.0
g18
tp3356
tp3357
(dp3358
g8
(lp3359
F0.15
aI2
ass(g718
(F3.0
F7.0
g59
tp3360
tp3361
(dp3362
g8
(lp3363
F0.15
aI2
ass(g134
(F5.0
F5.0
g20
tp3364
tp3365
(dp3366
g34
(lp3367
F0.99
aI1
asg26
(lp3368
F0.05
aI3
asg28
(lp3369
F0.05
aI3
ass(g128
(F9.0
F1.0
g18
tp3370
tp3371
(dp3372
g34
(lp3373
F0.99
aI1
asg26
(lp3374
F0.05
aI3
asg28
(lp3375
F0.05
aI3
ass(g144
(F7.0
F7.0
g18
tp3376
tp3377
(dp3378
g34
(lp3379
F0.99
aI1
asg26
(lp3380
F0.05
aI3
asg28
(lp3381
F0.05
aI3
ass(g144
(F7.0
F7.0
g20
tp3382
tp3383
(dp3384
g26
(lp3385
F0.05
aI3
asg28
(lp3386
F0.05
aI3
ass(g262
(F1.0
F9.0
g59
tp3387
tp3388
(dp3389
g8
(lp3390
F0.1
aI2
ass(g194
(F9.0
F3.0
g18
tp3391
tp3392
(dp3393
g26
(lp3394
F0.05
aI3
asg28
(lp3395
F0.05
aI3
ass(g728
(F7.0
F5.0
g1
tp3396
tp3397
(dp3398
g34
(lp3399
F0.005
aI1
asg26
(lp3400
F0.9
aI3
ass(g680
(F5.0
F1.0
g20
tp3401
tp3402
(dp3403
g16
(lp3404
F0.7
aI4
ass(g1372
(F1.0
F3.0
g20
tp3405
tp3406
(dp3407
g34
(lp3408
F0.005
aI1
asg26
(lp3409
F0.9
aI3
ass(g804
(F9.0
F3.0
g18
tp3410
tp3411
(dp3412
g8
(lp3413
F0.8500000000000001
aI2
ass(g49
(F9.0
F9.0
g1
tp3414
tp3415
(dp3416
g34
(lp3417
F0.005
aI1
asg28
(lp3418
F0.9
aI3
ass(g128
(F9.0
F3.0
g18
tp3419
tp3420
(dp3421
g16
(lp3422
F0.7749999999999999
aI4
ass(g128
(F9.0
F1.0
g59
tp3423
tp3424
(dp3425
g34
(lp3426
F0.005
aI1
asg28
(lp3427
F0.9
aI3
ass(g1199
(F3.0
F3.0
g1
tp3428
tp3429
(dp3430
g34
(lp3431
F0.99
aI1
asg26
(lp3432
F0.05
aI3
asg28
(lp3433
F0.05
aI3
ass(g569
(F7.0
F1.0
g1
tp3434
tp3435
(dp3436
g8
(lp3437
F0.8500000000000001
aI2
ass(g622
(F9.0
F1.0
g59
tp3438
tp3439
(dp3440
g16
(lp3441
F0.7749999999999999
aI4
ass(g1199
(F1.0
F1.0
g1
tp3442
tp3443
(dp3444
g16
(lp3445
F0.15
aI4
ass(g1214
(F9.0
F3.0
g20
tp3446
tp3447
(dp3448
g8
(lp3449
F0.8500000000000001
aI2
ass(g217
(F7.0
F5.0
g59
tp3450
tp3451
(dp3452
g8
(lp3453
F0.8
aI2
ass(g274
(F7.0
F7.0
g20
tp3454
tp3455
(dp3456
g34
(lp3457
F0.005
aI1
asg26
(lp3458
F0.9
aI3
ass(g353
(F5.0
F9.0
g20
tp3459
tp3460
(dp3461
g34
(lp3462
F0.99
aI1
asg26
(lp3463
F0.05
aI3
asg28
(lp3464
F0.05
aI3
ass(g392
(F3.0
F9.0
g20
tp3465
tp3466
(dp3467
g34
(lp3468
F0.005
aI1
asg26
(lp3469
F0.9
aI3
ass(g1235
(F7.0
F5.0
g59
tp3470
tp3471
(dp3472
g34
(lp3473
F0.99
aI1
asg26
(lp3474
F0.05
aI3
asg28
(lp3475
F0.05
aI3
ass(g491
(F7.0
F9.0
g20
tp3476
tp3477
(dp3478
g26
(lp3479
F0.05
aI3
asg28
(lp3480
F0.05
aI3
ass(g758
(F5.0
F3.0
g1
tp3481
tp3482
(dp3483
g16
(lp3484
F0.225
aI4
ass(g392
(F3.0
F9.0
g59
tp3485
tp3486
(dp3487
g26
(lp3488
F0.05
aI3
asg28
(lp3489
F0.05
aI3
ass(g274
(F5.0
F7.0
g1
tp3490
tp3491
(dp3492
g16
(lp3493
F0.7
aI4
ass(g594
(F1.0
F5.0
g20
tp3494
tp3495
(dp3496
g26
(lp3497
F0.05
aI3
asg28
(lp3498
F0.05
aI3
ass(g665
(F1.0
F7.0
g59
tp3499
tp3500
(dp3501
g34
(lp3502
F0.005
aI1
asg28
(lp3503
F0.9
aI3
ass(g281
(F7.0
F1.0
g59
tp3504
tp3505
(dp3506
g16
(lp3507
F0.15
aI4
ass(g2
(F3.0
F5.0
g1
tp3508
tp3509
(dp3510
g8
(lp3511
F0.8
aI2
ass(g274
(F5.0
F9.0
g1
tp3512
tp3513
(dp3514
g16
(lp3515
F0.15
aI4
ass(g104
(F1.0
F3.0
g18
tp3516
tp3517
(dp3518
g8
(lp3519
F0.1
aI2
ass(g332
(F5.0
F5.0
g20
tp3520
tp3521
(dp3522
g8
(lp3523
F0.1
aI2
ass(g178
(F5.0
F3.0
g18
tp3524
tp3525
(dp3526
g8
(lp3527
F0.8
aI2
ass(g286
(F7.0
F1.0
g1
tp3528
tp3529
(dp3530
g34
(lp3531
F0.005
aI1
asg28
(lp3532
F0.9
aI3
ass(g134
(F7.0
F7.0
g20
tp3533
tp3534
(dp3535
g8
(lp3536
F0.1
aI2
ass(g1214
(F9.0
F1.0
g59
tp3537
tp3538
(dp3539
g34
(lp3540
F0.005
aI1
asg26
(lp3541
F0.9
aI3
ass(g116
(F3.0
F5.0
g18
tp3542
tp3543
(dp3544
g8
(lp3545
F0.1
aI2
ass(g820
(F1.0
F1.0
g1
tp3546
tp3547
(dp3548
g26
(lp3549
F0.05
aI3
asg28
(lp3550
F0.05
aI3
ass(g60
(F9.0
F1.0
g20
tp3551
tp3552
(dp3553
g34
(lp3554
F0.005
aI1
asg28
(lp3555
F0.9
aI3
ass(g194
(F9.0
F3.0
g59
tp3556
tp3557
(dp3558
g34
(lp3559
F0.005
aI1
asg26
(lp3560
F0.9
aI3
ass(g10
(F1.0
F5.0
g1
tp3561
tp3562
(dp3563
g16
(lp3564
F0.15
aI4
ass(g262
(F3.0
F7.0
g18
tp3565
tp3566
(dp3567
g34
(lp3568
F0.005
aI1
asg26
(lp3569
F0.9
aI3
ass(g139
(F3.0
F5.0
g20
tp3570
tp3571
(dp3572
g34
(lp3573
F0.99
aI1
asg26
(lp3574
F0.05
aI3
asg28
(lp3575
F0.05
aI3
ass(g894
(F9.0
F5.0
g1
tp3576
tp3577
(dp3578
g34
(lp3579
F0.99
aI1
asg26
(lp3580
F0.05
aI3
asg28
(lp3581
F0.05
aI3
ass(g424
(F9.0
F3.0
g20
tp3582
tp3583
(dp3584
g34
(lp3585
F0.005
aI1
asg28
(lp3586
F0.9
aI3
ass(g641
(F5.0
F5.0
g20
tp3587
tp3588
(dp3589
g16
(lp3590
F0.15
aI4
ass(g516
(F1.0
F5.0
g20
tp3591
tp3592
(dp3593
g16
(lp3594
F0.7749999999999999
aI4
ass(g262
(F5.0
F5.0
g59
tp3595
tp3596
(dp3597
g16
(lp3598
F0.15
aI4
ass(g10
(F5.0
F5.0
g1
tp3599
tp3600
(dp3601
g8
(lp3602
F0.1
aI2
ass(g491
(F7.0
F9.0
g59
tp3603
tp3604
(dp3605
g34
(lp3606
F0.005
aI1
asg28
(lp3607
F0.9
aI3
ass(g222
(F1.0
F1.0
g18
tp3608
tp3609
(dp3610
g8
(lp3611
F0.1
aI2
ass(g398
(F3.0
F7.0
g1
tp3612
tp3613
(dp3614
g8
(lp3615
F0.8
aI2
ass(g728
(F7.0
F5.0
g18
tp3616
tp3617
(dp3618
g34
(lp3619
F0.99
aI1
asg26
(lp3620
F0.05
aI3
asg28
(lp3621
F0.05
aI3
ass(g845
(F5.0
F7.0
g20
tp3622
tp3623
(dp3624
g34
(lp3625
F0.005
aI1
asg26
(lp3626
F0.9
aI3
ass(g211
(F3.0
F7.0
g18
tp3627
tp3628
(dp3629
g8
(lp3630
F0.15
aI2
ass(g1214
(F9.0
F1.0
g1
tp3631
tp3632
(dp3633
g34
(lp3634
F0.005
aI1
asg28
(lp3635
F0.9
aI3
ass(g274
(F9.0
F5.0
g1
tp3636
tp3637
(dp3638
g8
(lp3639
F0.1
aI2
ass(g894
(F9.0
F5.0
g20
tp3640
tp3641
(dp3642
g34
(lp3643
F0.005
aI1
asg26
(lp3644
F0.9
aI3
ass(g227
(F1.0
F9.0
g59
tp3645
tp3646
(dp3647
g8
(lp3648
F0.8500000000000001
aI2
ass(g988
(F7.0
F3.0
g20
tp3649
tp3650
(dp3651
g26
(lp3652
F0.05
aI3
asg28
(lp3653
F0.05
aI3
ass(g594
(F1.0
F7.0
g18
tp3654
tp3655
(dp3656
g16
(lp3657
F0.7749999999999999
aI4
ass(g1454
(F9.0
F5.0
g20
tp3658
tp3659
(dp3660
g16
(lp3661
F0.7749999999999999
aI4
ass(g574
(F9.0
F7.0
g20
tp3662
tp3663
(dp3664
g8
(lp3665
F0.8500000000000001
aI2
ass(g622
(F9.0
F3.0
g59
tp3666
tp3667
(dp3668
g16
(lp3669
F0.225
aI4
ass(g526
(F7.0
F3.0
g18
tp3670
tp3671
(dp3672
g34
(lp3673
F0.005
aI1
asg28
(lp3674
F0.9
aI3
ass(g116
(F5.0
F7.0
g18
tp3675
tp3676
(dp3677
g34
(lp3678
F0.99
aI1
asg26
(lp3679
F0.05
aI3
asg28
(lp3680
F0.05
aI3
ass(g149
(F7.0
F5.0
g59
tp3681
tp3682
(dp3683
g16
(lp3684
F0.15
aI4
ass(g1454
(F9.0
F7.0
g20
tp3685
tp3686
(dp3687
g34
(lp3688
F0.99
aI1
asg26
(lp3689
F0.05
aI3
asg28
(lp3690
F0.05
aI3
ass(g461
(F1.0
F9.0
g18
tp3691
tp3692
(dp3693
g34
(lp3694
F0.005
aI1
asg28
(lp3695
F0.9
aI3
ass(g665
(F1.0
F5.0
g18
tp3696
tp3697
(dp3698
g8
(lp3699
F0.8500000000000001
aI2
ass(g54
(F5.0
F7.0
g18
tp3700
tp3701
(dp3702
g8
(lp3703
F0.8
aI2
ass(g1199
(F5.0
F3.0
g1
tp3704
tp3705
(dp3706
g8
(lp3707
F0.8
aI2
ass(g38
(F5.0
F5.0
g59
tp3708
tp3709
(dp3710
g26
(lp3711
F0.05
aI3
asg28
(lp3712
F0.05
aI3
ass(g1031
(F5.0
F7.0
g20
tp3713
tp3714
(dp3715
g16
(lp3716
F0.15
aI4
ass(g248
(F7.0
F5.0
g59
tp3717
tp3718
(dp3719
g34
(lp3720
F0.005
aI1
asg26
(lp3721
F0.9
aI3
ass(g268
(F9.0
F7.0
g59
tp3722
tp3723
(dp3724
g26
(lp3725
F0.05
aI3
asg28
(lp3726
F0.05
aI3
ass(g392
(F5.0
F9.0
g1
tp3727
tp3728
(dp3729
g8
(lp3730
F0.8500000000000001
aI2
ass(g1454
(F7.0
F9.0
g20
tp3731
tp3732
(dp3733
g8
(lp3734
F0.15
aI2
ass(g612
(F9.0
F9.0
g1
tp3735
tp3736
(dp3737
g34
(lp3738
F0.005
aI1
asg26
(lp3739
F0.9
aI3
ass(g255
(F3.0
F1.0
g59
tp3740
tp3741
(dp3742
g8
(lp3743
F0.8500000000000001
aI2
ass(g104
(F3.0
F3.0
g18
tp3744
tp3745
(dp3746
g8
(lp3747
F0.8
aI2
ass(g49
(F9.0
F9.0
g18
tp3748
tp3749
(dp3750
g26
(lp3751
F0.05
aI3
asg28
(lp3752
F0.05
aI3
ass(g1372
(F1.0
F3.0
g18
tp3753
tp3754
(dp3755
g34
(lp3756
F0.005
aI1
asg28
(lp3757
F0.9
aI3
ass(g199
(F3.0
F7.0
g1
tp3758
tp3759
(dp3760
g34
(lp3761
F0.005
aI1
asg26
(lp3762
F0.9
aI3
ass(g734
(F7.0
F5.0
g1
tp3763
tp3764
(dp3765
g8
(lp3766
F0.1
aI2
ass(g122
(F5.0
F7.0
g59
tp3767
tp3768
(dp3769
g34
(lp3770
F0.005
aI1
asg26
(lp3771
F0.9
aI3
ass(g363
(F1.0
F5.0
g20
tp3772
tp3773
(dp3774
g8
(lp3775
F0.1
aI2
ass(g160
(F3.0
F3.0
g20
tp3776
tp3777
(dp3778
g8
(lp3779
F0.15
aI2
ass(g88
(F9.0
F9.0
g59
tp3780
tp3781
(dp3782
g16
(lp3783
F0.7749999999999999
aI4
ass(g76
(F7.0
F1.0
g18
tp3784
tp3785
(dp3786
g8
(lp3787
F0.1
aI2
ass(g607
(F9.0
F3.0
g1
tp3788
tp3789
(dp3790
g34
(lp3791
F0.005
aI1
asg26
(lp3792
F0.9
aI3
ass(g99
(F7.0
F9.0
g18
tp3793
tp3794
(dp3795
g16
(lp3796
F0.225
aI4
ass(g155
(F5.0
F3.0
g59
tp3797
tp3798
(dp3799
g8
(lp3800
F0.8
aI2
ass(g149
(F5.0
F7.0
g20
tp3801
tp3802
(dp3803
g34
(lp3804
F0.005
aI1
asg28
(lp3805
F0.9
aI3
ass(g569
(F3.0
F3.0
g1
tp3806
tp3807
(dp3808
g16
(lp3809
F0.225
aI4
ass(g30
(F3.0
F1.0
g18
tp3810
tp3811
(dp3812
g8
(lp3813
F0.15
aI2
ass(g60
(F9.0
F1.0
g1
tp3814
tp3815
(dp3816
g26
(lp3817
F0.05
aI3
asg28
(lp3818
F0.05
aI3
ass(g734
(F3.0
F1.0
g1
tp3819
tp3820
(dp3821
g16
(lp3822
F0.15
aI4
ass(g820
(F1.0
F1.0
g59
tp3823
tp3824
(dp3825
g34
(lp3826
F0.99
aI1
asg26
(lp3827
F0.05
aI3
asg28
(lp3828
F0.05
aI3
ass(g262
(F5.0
F7.0
g59
tp3829
tp3830
(dp3831
g16
(lp3832
F0.7
aI4
ass(g363
(F3.0
F1.0
g20
tp3833
tp3834
(dp3835
g16
(lp3836
F0.7
aI4
ass(g447
(F5.0
F9.0
g18
tp3837
tp3838
(dp3839
g34
(lp3840
F0.005
aI1
asg28
(lp3841
F0.9
aI3
ass(g1350
(F5.0
F5.0
g1
tp3842
tp3843
(dp3844
g8
(lp3845
F0.8
aI2
ass(g641
(F7.0
F7.0
g18
tp3846
tp3847
(dp3848
g26
(lp3849
F0.05
aI3
asg28
(lp3850
F0.05
aI3
ass(g1372
(F3.0
F3.0
g1
tp3851
tp3852
(dp3853
g8
(lp3854
F0.8
aI2
ass(g607
(F9.0
F5.0
g18
tp3855
tp3856
(dp3857
g16
(lp3858
F0.7749999999999999
aI4
ass(g820
(F1.0
F1.0
g18
tp3859
tp3860
(dp3861
g34
(lp3862
F0.005
aI1
asg26
(lp3863
F0.9
aI3
ass(g94
(F3.0
F1.0
g59
tp3864
tp3865
(dp3866
g26
(lp3867
F0.05
aI3
asg28
(lp3868
F0.05
aI3
ass(g94
(F3.0
F1.0
g1
tp3869
tp3870
(dp3871
g34
(lp3872
F0.99
aI1
asg26
(lp3873
F0.05
aI3
asg28
(lp3874
F0.05
aI3
ass(g447
(F5.0
F9.0
g59
tp3875
tp3876
(dp3877
g26
(lp3878
F0.05
aI3
asg28
(lp3879
F0.05
aI3
ass.