(dp0
((F0.75
F0.75
S'W'
p1
tp2
(F0.25
F0.25
g1
tp3
tp4
(dp5
(S'F'
p6
S'R'
p7
tp8
(lp9
F0.1
aI2
ass((F0.75
F1.75
S'N'
p10
tp11
(F0.75
F1.75
S'E'
p12
tp13
tp14
(dp15
(S'S'
p16
S'T'
p17
tp18
(lp19
F0.005
aI1
as(g17
g7
tp20
(lp21
F0.9
aI3
ass((F0.75
F1.75
g16
tp22
(F0.75
F1.75
g1
tp23
tp24
(dp25
g18
(lp26
F0.005
aI1
asg20
(lp27
F0.9
aI3
ass((F0.75
F1.25
g16
tp28
(F0.75
F1.75
g16
tp29
tp30
(dp31
(S'B'
p32
S'K'
p33
tp34
(lp35
F1.0
aI4
ass((F0.75
F0.25
g12
tp36
(F0.75
F0.25
g10
tp37
tp38
(dp39
g18
(lp40
F0.005
aI1
as(g17
S'L'
p41
tp42
(lp43
F0.9
aI3
ass((F0.25
F1.25
g1
tp44
(F0.75
F1.25
g1
tp45
tp46
(dp47
g34
(lp48
F0.7
aI4
ass((F0.25
F1.25
g12
tp49
(F0.75
F1.25
g12
tp50
tp51
(dp52
g8
(lp53
F0.8
aI2
ass(g2
(F0.25
F1.25
g1
tp54
tp55
(dp56
g8
(lp57
F0.1
aI2
ass((F0.25
F0.25
g1
tp58
(F0.25
F0.25
g10
tp59
tp60
(dp61
g18
(lp62
F0.005
aI1
asg20
(lp63
F0.9
aI3
ass((F0.25
F0.25
g12
tp64
(F0.25
F0.25
g12
tp65
tp66
(dp67
g18
(lp68
F0.99
aI1
asg42
(lp69
F0.05
aI3
asg20
(lp70
F0.05
aI3
ass((F1.25
F0.25
g1
tp71
(F1.25
F0.25
g16
tp72
tp73
(dp74
g18
(lp75
F0.005
aI1
asg42
(lp76
F0.9
aI3
ass((F1.75
F0.25
g1
tp77
(F1.75
F0.25
g10
tp78
tp79
(dp80
g18
(lp81
F0.005
aI1
asg20
(lp82
F0.9
aI3
ass((F0.75
F0.25
g1
tp83
(F1.25
F0.25
g1
tp84
tp85
(dp86
g34
(lp87
F0.7749999999999999
aI4
ass((F2.25
F1.25
g1
tp88
(F1.75
F0.75
g1
tp89
tp90
(dp91
g8
(lp92
F1.0
aI2
ass(g28
(F0.75
F1.25
g1
tp93
tp94
(dp95
g18
(lp96
F0.005
aI1
asg20
(lp97
F0.9
aI3
ass((F0.75
F0.75
g12
tp98
(F0.75
F0.75
g16
tp99
tp100
(dp101
g18
(lp102
F0.005
aI1
asg20
(lp103
F0.9
aI3
ass(g36
(F0.75
F0.25
g1
tp104
tp105
(dp106
g42
(lp107
F0.05
aI3
asg20
(lp108
F0.05
aI3
ass((F0.25
F0.75
g10
tp109
(F0.75
F0.25
g10
tp110
tp111
(dp112
g34
(lp113
F0.225
aI4
ass(g2
(F0.75
F0.75
g1
tp114
tp115
(dp116
g18
(lp117
F0.99
aI1
asg42
(lp118
F0.05
aI3
asg20
(lp119
F0.05
aI3
ass(g28
(F0.75
F1.25
g12
tp120
tp121
(dp122
g18
(lp123
F0.005
aI1
asg42
(lp124
F0.9
aI3
ass((F2.25
F1.25
g16
tp125
(F2.25
F1.25
g16
tp126
tp127
(dp128
g18
(lp129
F0.99
aI1
asg42
(lp130
F0.05
aI3
asg20
(lp131
F0.05
aI3
ass((F2.25
F0.75
g12
tp132
(F2.25
F0.75
g12
tp133
tp134
(dp135
g18
(lp136
F0.99
aI1
asg42
(lp137
F0.05
aI3
asg20
(lp138
F0.05
aI3
ass(g98
(F0.75
F0.75
g10
tp139
tp140
(dp141
g18
(lp142
F0.005
aI1
asg42
(lp143
F0.9
aI3
ass(g109
(F0.75
F1.25
g10
tp144
tp145
(dp146
g8
(lp147
F0.15
aI2
ass((F1.25
F0.25
g16
tp148
(F1.25
F0.25
g10
tp149
tp150
(dp151
g42
(lp152
F0.05
aI3
asg20
(lp153
F0.05
aI3
ass(g71
(F1.25
F0.25
g10
tp154
tp155
(dp156
g18
(lp157
F0.005
aI1
asg20
(lp158
F0.9
aI3
ass((F2.25
F0.75
g1
tp159
(F2.25
F0.75
g16
tp160
tp161
(dp162
g18
(lp163
F0.005
aI1
asg42
(lp164
F0.9
aI3
ass((F1.75
F0.75
g1
tp165
(F2.25
F0.75
g1
tp166
tp167
(dp168
g34
(lp169
F0.7
aI4
ass((F1.25
F0.25
g10
tp170
(F1.25
F0.25
g16
tp171
tp172
(dp173
g42
(lp174
F0.05
aI3
asg20
(lp175
F0.05
aI3
ass((F1.75
F0.75
g16
tp176
(F1.75
F0.25
g16
tp177
tp178
(dp179
g8
(lp180
F0.8
aI2
ass((F0.75
F0.75
g16
tp181
(F0.75
F0.25
g16
tp182
tp183
(dp184
g8
(lp185
F0.8
aI2
ass((F1.75
F0.75
g12
tp186
(F2.25
F0.75
g12
tp187
tp188
(dp189
g8
(lp190
F0.8
aI2
ass((F2.25
F0.25
g1
tp191
(F2.25
F0.25
g1
tp192
tp193
(dp194
g18
(lp195
F0.99
aI1
asg42
(lp196
F0.05
aI3
asg20
(lp197
F0.05
aI3
ass(g44
(F0.75
F0.75
g1
tp198
tp199
(dp200
g34
(lp201
F0.15
aI4
ass((F0.25
F1.25
g10
tp202
(F0.25
F1.25
g12
tp203
tp204
(dp205
g18
(lp206
F0.005
aI1
asg20
(lp207
F0.9
aI3
ass(g148
(F1.25
F0.25
g16
tp208
tp209
(dp210
g18
(lp211
F0.99
aI1
asg42
(lp212
F0.05
aI3
asg20
(lp213
F0.05
aI3
ass((F1.75
F0.75
g10
tp214
(F1.75
F0.75
g12
tp215
tp216
(dp217
g18
(lp218
F0.005
aI1
asg20
(lp219
F0.9
aI3
ass(g181
(F1.25
F0.25
g16
tp220
tp221
(dp222
g8
(lp223
F0.1
aI2
ass((F0.75
F0.75
g10
tp224
(F0.25
F0.25
g10
tp225
tp226
(dp227
g34
(lp228
F0.15
aI4
ass((F1.75
F0.25
g12
tp229
(F1.75
F0.25
g16
tp230
tp231
(dp232
g18
(lp233
F0.005
aI1
asg20
(lp234
F0.9
aI3
ass((F2.25
F0.25
g10
tp235
(F2.25
F0.25
g16
tp236
tp237
(dp238
g42
(lp239
F0.05
aI3
asg20
(lp240
F0.05
aI3
ass((F2.25
F0.75
g16
tp241
(F2.25
F0.25
g16
tp242
tp243
(dp244
g8
(lp245
F0.8500000000000001
aI2
ass((F0.25
F0.25
g10
tp246
(F0.25
F0.25
g12
tp247
tp248
(dp249
g18
(lp250
F0.005
aI1
asg20
(lp251
F0.9
aI3
ass(g202
(F0.25
F1.25
g10
tp252
tp253
(dp254
g18
(lp255
F0.99
aI1
asg42
(lp256
F0.05
aI3
asg20
(lp257
F0.05
aI3
ass(g214
(F1.75
F0.75
g10
tp258
tp259
(dp260
g18
(lp261
F0.99
aI1
asg42
(lp262
F0.05
aI3
asg20
(lp263
F0.05
aI3
ass((F0.25
F0.75
g16
tp264
(F0.25
F0.75
g12
tp265
tp266
(dp267
g18
(lp268
F0.005
aI1
asg42
(lp269
F0.9
aI3
ass((F0.75
F0.25
g16
tp270
(F0.75
F0.25
g10
tp271
tp272
(dp273
g42
(lp274
F0.05
aI3
asg20
(lp275
F0.05
aI3
ass((F0.25
F0.75
g12
tp276
(F0.25
F0.75
g16
tp277
tp278
(dp279
g18
(lp280
F0.005
aI1
asg20
(lp281
F0.9
aI3
ass((F2.25
F0.25
g16
tp282
(F2.25
F0.25
g12
tp283
tp284
(dp285
g18
(lp286
F0.005
aI1
asg42
(lp287
F0.9
aI3
ass(g36
(F0.25
F0.75
g12
tp288
tp289
(dp290
g34
(lp291
F0.225
aI4
ass(g191
(F2.25
F0.25
g16
tp292
tp293
(dp294
g18
(lp295
F0.005
aI1
asg42
(lp296
F0.9
aI3
ass(g224
(F0.75
F0.75
g16
tp297
tp298
(dp299
g42
(lp300
F0.05
aI3
asg20
(lp301
F0.05
aI3
ass((F2.25
F0.25
g12
tp302
(F2.25
F0.25
g1
tp303
tp304
(dp305
g42
(lp306
F0.05
aI3
asg20
(lp307
F0.05
aI3
ass(g170
(F1.25
F0.25
g1
tp308
tp309
(dp310
g18
(lp311
F0.005
aI1
asg42
(lp312
F0.9
aI3
ass((F1.25
F0.75
g10
tp313
(F1.25
F0.75
g1
tp314
tp315
(dp316
g18
(lp317
F0.005
aI1
asg42
(lp318
F0.9
aI3
ass(g83
(F1.25
F0.75
g1
tp319
tp320
(dp321
g34
(lp322
F0.225
aI4
ass((F0.75
F1.25
g12
tp323
(F0.25
F1.25
g12
tp324
tp325
(dp326
g34
(lp327
F0.7749999999999999
aI4
ass((F1.75
F0.25
g10
tp328
(F1.75
F0.25
g1
tp329
tp330
(dp331
g18
(lp332
F0.005
aI1
asg42
(lp333
F0.9
aI3
ass((F1.25
F0.75
g16
tp334
(F0.75
F0.25
g16
tp335
tp336
(dp337
g8
(lp338
F0.1
aI2
ass(g229
(F1.25
F0.25
g12
tp339
tp340
(dp341
g34
(lp342
F0.7749999999999999
aI4
ass(g22
(F0.75
F1.75
g12
tp343
tp344
(dp345
g18
(lp346
F0.005
aI1
asg42
(lp347
F0.9
aI3
ass((F1.25
F0.25
g12
tp348
(F1.25
F0.25
g1
tp349
tp350
(dp351
g42
(lp352
F0.05
aI3
asg20
(lp353
F0.05
aI3
ass(g176
(F1.75
F0.75
g16
tp354
tp355
(dp356
g18
(lp357
F0.99
aI1
asg42
(lp358
F0.05
aI3
asg20
(lp359
F0.05
aI3
ass(g202
(F0.75
F0.75
g10
tp360
tp361
(dp362
g34
(lp363
F0.225
aI4
ass(g302
(F2.25
F0.25
g10
tp364
tp365
(dp366
g18
(lp367
F0.005
aI1
asg42
(lp368
F0.9
aI3
ass((F0.75
F1.25
g10
tp369
(F0.75
F1.75
g10
tp370
tp371
(dp372
g8
(lp373
F1.0
aI2
ass(g214
(F1.75
F0.75
g16
tp374
tp375
(dp376
g42
(lp377
F0.05
aI3
asg20
(lp378
F0.05
aI3
ass((F2.25
F1.25
g10
tp379
(F2.25
F1.25
g12
tp380
tp381
(dp382
g18
(lp383
F0.005
aI1
asg20
(lp384
F0.9
aI3
ass(g170
(F1.75
F0.75
g10
tp385
tp386
(dp387
g8
(lp388
F0.1
aI2
ass((F1.25
F0.75
g1
tp389
(F1.75
F0.75
g1
tp390
tp391
(dp392
g34
(lp393
F0.7749999999999999
aI4
ass(g181
(F0.25
F0.25
g16
tp394
tp395
(dp396
g8
(lp397
F0.1
aI2
ass(g186
(F2.25
F0.25
g12
tp398
tp399
(dp400
g8
(lp401
F0.1
aI2
ass(g202
(F0.25
F1.25
g1
tp402
tp403
(dp404
g18
(lp405
F0.005
aI1
asg42
(lp406
F0.9
aI3
ass((F0.75
F0.25
g10
tp407
(F0.25
F0.75
g10
tp408
tp409
(dp410
g8
(lp411
F0.1
aI2
ass(g282
(F2.25
F0.25
g1
tp412
tp413
(dp414
g18
(lp415
F0.005
aI1
asg20
(lp416
F0.9
aI3
ass((F0.75
F1.25
g1
tp417
(F0.75
F1.25
g10
tp418
tp419
(dp420
g18
(lp421
F0.005
aI1
asg20
(lp422
F0.9
aI3
ass(g159
(F1.75
F0.75
g1
tp423
tp424
(dp425
g8
(lp426
F0.8500000000000001
aI2
ass(g379
(F2.25
F1.25
g10
tp427
tp428
(dp429
g18
(lp430
F0.99
aI1
asg42
(lp431
F0.05
aI3
asg20
(lp432
F0.05
aI3
ass(g49
(F0.25
F1.25
g16
tp433
tp434
(dp435
g18
(lp436
F0.005
aI1
asg20
(lp437
F0.9
aI3
ass((F1.25
F0.75
g12
tp438
(F1.75
F0.25
g12
tp439
tp440
(dp441
g8
(lp442
F0.15
aI2
ass(g36
(F0.75
F0.25
g12
tp443
tp444
(dp445
g18
(lp446
F0.99
aI1
asg42
(lp447
F0.05
aI3
asg20
(lp448
F0.05
aI3
ass(g22
(F0.25
F1.25
g16
tp449
tp450
(dp451
g8
(lp452
F0.15
aI2
ass(g407
(F0.75
F0.25
g1
tp453
tp454
(dp455
g18
(lp456
F0.005
aI1
asg42
(lp457
F0.9
aI3
ass(g235
(F2.25
F0.75
g10
tp458
tp459
(dp460
g8
(lp461
F0.8500000000000001
aI2
ass(g202
(F0.25
F1.25
g16
tp462
tp463
(dp464
g42
(lp465
F0.05
aI3
asg20
(lp466
F0.05
aI3
ass(g125
(F2.25
F1.25
g12
tp467
tp468
(dp469
g18
(lp470
F0.005
aI1
asg42
(lp471
F0.9
aI3
ass(g83
(F0.75
F0.25
g10
tp472
tp473
(dp474
g18
(lp475
F0.005
aI1
asg20
(lp476
F0.9
aI3
ass(g214
(F2.25
F0.25
g10
tp477
tp478
(dp479
g34
(lp480
F0.15
aI4
ass(g36
(F1.25
F0.75
g12
tp481
tp482
(dp483
g8
(lp484
F0.15
aI2
ass(g235
(F2.25
F0.25
g10
tp485
tp486
(dp487
g18
(lp488
F0.99
aI1
asg42
(lp489
F0.05
aI3
asg20
(lp490
F0.05
aI3
ass((F0.25
F0.25
g16
tp491
(F0.25
F0.25
g10
tp492
tp493
(dp494
g42
(lp495
F0.05
aI3
asg20
(lp496
F0.05
aI3
ass(g369
(F1.25
F0.75
g10
tp497
tp498
(dp499
g34
(lp500
F0.15
aI4
ass(g88
(F2.25
F1.25
g12
tp501
tp502
(dp503
g42
(lp504
F0.05
aI3
asg20
(lp505
F0.05
aI3
ass(g109
(F0.25
F1.25
g10
tp506
tp507
(dp508
g8
(lp509
F0.8500000000000001
aI2
ass(g264
(F0.25
F0.75
g1
tp510
tp511
(dp512
g18
(lp513
F0.005
aI1
asg20
(lp514
F0.9
aI3
ass(g323
(F0.75
F1.25
g16
tp515
tp516
(dp517
g18
(lp518
F0.005
aI1
asg20
(lp519
F0.9
aI3
ass((F1.75
F0.25
g16
tp520
(F1.75
F0.25
g16
tp521
tp522
(dp523
g18
(lp524
F0.99
aI1
asg42
(lp525
F0.05
aI3
asg20
(lp526
F0.05
aI3
ass(g98
(F1.25
F0.25
g12
tp527
tp528
(dp529
g8
(lp530
F0.15
aI2
ass(g22
(F0.75
F1.75
g16
tp531
tp532
(dp533
g18
(lp534
F0.99
aI1
asg42
(lp535
F0.05
aI3
asg20
(lp536
F0.05
aI3
ass((F0.75
F1.75
g1
tp537
(F0.25
F1.25
g1
tp538
tp539
(dp540
g8
(lp541
F1.0
aI2
ass(g229
(F1.75
F0.25
g1
tp542
tp543
(dp544
g42
(lp545
F0.05
aI3
asg20
(lp546
F0.05
aI3
ass(g176
(F1.25
F0.25
g16
tp547
tp548
(dp549
g8
(lp550
F0.1
aI2
ass(g186
(F1.75
F0.75
g16
tp551
tp552
(dp553
g18
(lp554
F0.005
aI1
asg20
(lp555
F0.9
aI3
ass((F2.25
F0.75
g10
tp556
(F2.25
F0.25
g10
tp557
tp558
(dp559
g34
(lp560
F0.7749999999999999
aI4
ass(g88
(F2.25
F1.25
g16
tp561
tp562
(dp563
g18
(lp564
F0.005
aI1
asg42
(lp565
F0.9
aI3
ass(g334
(F1.25
F0.75
g16
tp566
tp567
(dp568
g18
(lp569
F0.99
aI1
asg42
(lp570
F0.05
aI3
asg20
(lp571
F0.05
aI3
ass(g165
(F1.75
F0.75
g10
tp572
tp573
(dp574
g18
(lp575
F0.005
aI1
asg20
(lp576
F0.9
aI3
ass(g264
(F0.75
F1.25
g16
tp577
tp578
(dp579
g34
(lp580
F0.225
aI4
ass(g98
(F0.75
F0.75
g12
tp581
tp582
(dp583
g18
(lp584
F0.99
aI1
asg42
(lp585
F0.05
aI3
asg20
(lp586
F0.05
aI3
ass(g556
(F1.75
F0.25
g10
tp587
tp588
(dp589
g34
(lp590
F0.225
aI4
ass(g191
(F2.25
F0.25
g10
tp591
tp592
(dp593
g18
(lp594
F0.005
aI1
asg20
(lp595
F0.9
aI3
ass(g2
(F1.25
F0.75
g1
tp596
tp597
(dp598
g34
(lp599
F0.7749999999999999
aI4
ass(g28
(F1.25
F0.75
g16
tp600
tp601
(dp602
g8
(lp603
F0.1
aI2
ass((F0.25
F1.25
g16
tp604
(F0.25
F0.75
g16
tp605
tp606
(dp607
g8
(lp608
F0.8500000000000001
aI2
ass(g98
(F0.25
F0.75
g12
tp609
tp610
(dp611
g34
(lp612
F0.7
aI4
ass(g556
(F2.25
F1.25
g10
tp613
tp614
(dp615
g8
(lp616
F1.0
aI2
ass(g246
(F0.25
F0.25
g1
tp617
tp618
(dp619
g18
(lp620
F0.005
aI1
asg42
(lp621
F0.9
aI3
ass(g191
(F1.75
F0.25
g1
tp622
tp623
(dp624
g8
(lp625
F0.8500000000000001
aI2
ass(g88
(F2.25
F1.25
g1
tp626
tp627
(dp628
g18
(lp629
F0.99
aI1
asg42
(lp630
F0.05
aI3
asg20
(lp631
F0.05
aI3
ass(g125
(F1.75
F0.75
g16
tp632
tp633
(dp634
g8
(lp635
F0.15
aI2
ass(g264
(F0.25
F0.75
g16
tp636
tp637
(dp638
g18
(lp639
F0.99
aI1
asg42
(lp640
F0.05
aI3
asg20
(lp641
F0.05
aI3
ass(g224
(F1.25
F0.25
g10
tp642
tp643
(dp644
g34
(lp645
F0.15
aI4
ass(g170
(F1.25
F0.25
g10
tp646
tp647
(dp648
g18
(lp649
F0.99
aI1
asg42
(lp650
F0.05
aI3
asg20
(lp651
F0.05
aI3
ass(g44
(F0.25
F1.25
g16
tp652
tp653
(dp654
g18
(lp655
F0.005
aI1
asg42
(lp656
F0.9
aI3
ass(g537
(F0.75
F1.75
g10
tp657
tp658
(dp659
g18
(lp660
F0.005
aI1
asg20
(lp661
F0.9
aI3
ass(g98
(F0.75
F0.75
g1
tp662
tp663
(dp664
g42
(lp665
F0.05
aI3
asg20
(lp666
F0.05
aI3
ass(g334
(F1.75
F0.25
g16
tp667
tp668
(dp669
g8
(lp670
F0.1
aI2
ass(g132
(F1.75
F0.25
g12
tp671
tp672
(dp673
g34
(lp674
F0.225
aI4
ass(g109
(F0.25
F0.75
g1
tp675
tp676
(dp677
g18
(lp678
F0.005
aI1
asg42
(lp679
F0.9
aI3
ass(g604
(F0.75
F0.75
g16
tp680
tp681
(dp682
g8
(lp683
F0.15
aI2
ass(g246
(F0.75
F0.75
g10
tp684
tp685
(dp686
g8
(lp687
F0.15
aI2
ass(g438
(F0.75
F1.25
g12
tp688
tp689
(dp690
g34
(lp691
F0.15
aI4
ass(g334
(F1.25
F0.75
g10
tp692
tp693
(dp694
g42
(lp695
F0.05
aI3
asg20
(lp696
F0.05
aI3
ass(g214
(F1.75
F0.75
g1
tp697
tp698
(dp699
g18
(lp700
F0.005
aI1
asg42
(lp701
F0.9
aI3
ass(g77
(F1.75
F0.25
g12
tp702
tp703
(dp704
g42
(lp705
F0.05
aI3
asg20
(lp706
F0.05
aI3
ass(g241
(F1.75
F0.25
g16
tp707
tp708
(dp709
g8
(lp710
F0.15
aI2
ass(g181
(F0.75
F0.75
g10
tp711
tp712
(dp713
g42
(lp714
F0.05
aI3
asg20
(lp715
F0.05
aI3
ass(g276
(F0.75
F0.25
g12
tp716
tp717
(dp718
g8
(lp719
F0.1
aI2
ass((F0.25
F0.75
g1
tp720
(F0.25
F0.75
g10
tp721
tp722
(dp723
g18
(lp724
F0.005
aI1
asg20
(lp725
F0.9
aI3
ass(g438
(F1.25
F0.75
g12
tp726
tp727
(dp728
g18
(lp729
F0.99
aI1
asg42
(lp730
F0.05
aI3
asg20
(lp731
F0.05
aI3
ass(g438
(F0.75
F0.75
g12
tp732
tp733
(dp734
g34
(lp735
F0.7
aI4
ass(g302
(F2.25
F0.25
g12
tp736
tp737
(dp738
g18
(lp739
F0.99
aI1
asg42
(lp740
F0.05
aI3
asg20
(lp741
F0.05
aI3
ass(g323
(F0.75
F1.25
g12
tp742
tp743
(dp744
g18
(lp745
F0.99
aI1
asg42
(lp746
F0.05
aI3
asg20
(lp747
F0.05
aI3
ass(g165
(F2.25
F0.25
g1
tp748
tp749
(dp750
g34
(lp751
F0.15
aI4
ass(g520
(F1.75
F0.25
g1
tp752
tp753
(dp754
g18
(lp755
F0.005
aI1
asg20
(lp756
F0.9
aI3
ass((F2.25
F1.25
g12
tp757
(F2.25
F1.25
g16
tp758
tp759
(dp760
g18
(lp761
F0.005
aI1
asg20
(lp762
F0.9
aI3
ass(g334
(F0.75
F1.25
g16
tp763
tp764
(dp765
g34
(lp766
F1.0
aI4
ass(g348
(F0.75
F0.75
g12
tp767
tp768
(dp769
g34
(lp770
F0.225
aI4
ass(g348
(F1.75
F0.25
g12
tp771
tp772
(dp773
g8
(lp774
F0.8500000000000001
aI2
ass(g2
(F0.75
F0.75
g10
tp775
tp776
(dp777
g18
(lp778
F0.005
aI1
asg20
(lp779
F0.9
aI3
ass(g270
(F0.75
F0.25
g12
tp780
tp781
(dp782
g18
(lp783
F0.005
aI1
asg42
(lp784
F0.9
aI3
ass(g282
(F2.25
F0.25
g10
tp785
tp786
(dp787
g42
(lp788
F0.05
aI3
asg20
(lp789
F0.05
aI3
ass(g2
(F0.25
F0.75
g1
tp790
tp791
(dp792
g8
(lp793
F0.8
aI2
ass(g264
(F0.25
F0.25
g16
tp794
tp795
(dp796
g8
(lp797
F0.8500000000000001
aI2
ass(g276
(F0.75
F0.75
g12
tp798
tp799
(dp800
g8
(lp801
F0.8
aI2
ass(g389
(F0.75
F0.75
g1
tp802
tp803
(dp804
g8
(lp805
F0.8
aI2
ass(g148
(F1.25
F0.25
g12
tp806
tp807
(dp808
g18
(lp809
F0.005
aI1
asg42
(lp810
F0.9
aI3
ass(g282
(F2.25
F0.75
g16
tp811
tp812
(dp813
g34
(lp814
F0.7749999999999999
aI4
ass(g181
(F0.75
F1.25
g16
tp815
tp816
(dp817
g34
(lp818
F0.7749999999999999
aI4
ass(g313
(F1.25
F0.75
g16
tp819
tp820
(dp821
g42
(lp822
F0.05
aI3
asg20
(lp823
F0.05
aI3
ass(g224
(F0.75
F0.75
g10
tp824
tp825
(dp826
g18
(lp827
F0.99
aI1
asg42
(lp828
F0.05
aI3
asg20
(lp829
F0.05
aI3
ass(g191
(F1.75
F0.75
g1
tp830
tp831
(dp832
g8
(lp833
F0.15
aI2
ass(g438
(F1.25
F0.75
g10
tp834
tp835
(dp836
g18
(lp837
F0.005
aI1
asg42
(lp838
F0.9
aI3
ass(g389
(F1.25
F0.75
g16
tp839
tp840
(dp841
g18
(lp842
F0.005
aI1
asg42
(lp843
F0.9
aI3
ass(g348
(F1.75
F0.75
g12
tp844
tp845
(dp846
g8
(lp847
F0.15
aI2
ass(g556
(F2.25
F0.75
g12
tp848
tp849
(dp850
g18
(lp851
F0.005
aI1
asg20
(lp852
F0.9
aI3
ass(g720
(F0.25
F0.75
g12
tp853
tp854
(dp855
g42
(lp856
F0.05
aI3
asg20
(lp857
F0.05
aI3
ass(g159
(F2.25
F0.75
g12
tp858
tp859
(dp860
g42
(lp861
F0.05
aI3
asg20
(lp862
F0.05
aI3
ass(g417
(F0.75
F1.25
g16
tp863
tp864
(dp865
g18
(lp866
F0.005
aI1
asg42
(lp867
F0.9
aI3
ass(g604
(F0.25
F1.25
g12
tp868
tp869
(dp870
g18
(lp871
F0.005
aI1
asg42
(lp872
F0.9
aI3
ass(g28
(F0.75
F1.25
g10
tp873
tp874
(dp875
g42
(lp876
F0.05
aI3
asg20
(lp877
F0.05
aI3
ass(g389
(F1.25
F0.75
g10
tp878
tp879
(dp880
g18
(lp881
F0.005
aI1
asg20
(lp882
F0.9
aI3
ass(g28
(F0.75
F1.25
g16
tp883
tp884
(dp885
g18
(lp886
F0.99
aI1
asg42
(lp887
F0.05
aI3
asg20
(lp888
F0.05
aI3
ass(g77
(F2.25
F0.25
g1
tp889
tp890
(dp891
g34
(lp892
F0.7749999999999999
aI4
ass(g369
(F0.25
F0.75
g10
tp893
tp894
(dp895
g34
(lp896
F0.15
aI4
ass(g328
(F1.25
F0.75
g10
tp897
tp898
(dp899
g8
(lp900
F0.1
aI2
ass(g170
(F1.25
F0.25
g12
tp901
tp902
(dp903
g18
(lp904
F0.005
aI1
asg20
(lp905
F0.9
aI3
ass(g71
(F1.75
F0.25
g1
tp906
tp907
(dp908
g34
(lp909
F0.7749999999999999
aI4
ass(g313
(F0.75
F0.25
g10
tp910
tp911
(dp912
g34
(lp913
F0.15
aI4
ass(g348
(F1.25
F0.25
g10
tp914
tp915
(dp916
g18
(lp917
F0.005
aI1
asg42
(lp918
F0.9
aI3
ass(g224
(F0.75
F0.25
g10
tp919
tp920
(dp921
g34
(lp922
F0.7
aI4
ass(g49
(F0.75
F0.75
g12
tp923
tp924
(dp925
g8
(lp926
F0.1
aI2
ass(g71
(F0.75
F0.75
g1
tp927
tp928
(dp929
g8
(lp930
F0.15
aI2
ass(g334
(F1.25
F0.25
g16
tp931
tp932
(dp933
g8
(lp934
F0.8
aI2
ass(g757
(F2.25
F1.25
g10
tp935
tp936
(dp937
g18
(lp938
F0.005
aI1
asg42
(lp939
F0.9
aI3
ass(g98
(F0.25
F0.25
g12
tp940
tp941
(dp942
g34
(lp943
F0.15
aI4
ass(g109
(F0.25
F0.75
g10
tp944
tp945
(dp946
g18
(lp947
F0.99
aI1
asg42
(lp948
F0.05
aI3
asg20
(lp949
F0.05
aI3
ass(g2
(F0.75
F0.75
g12
tp950
tp951
(dp952
g42
(lp953
F0.05
aI3
asg20
(lp954
F0.05
aI3
ass(g229
(F1.25
F0.75
g12
tp955
tp956
(dp957
g34
(lp958
F0.225
aI4
ass(g369
(F0.75
F1.25
g16
tp959
tp960
(dp961
g42
(lp962
F0.05
aI3
asg20
(lp963
F0.05
aI3
ass(g132
(F2.25
F0.75
g10
tp964
tp965
(dp966
g18
(lp967
F0.005
aI1
asg42
(lp968
F0.9
aI3
ass(g438
(F0.75
F0.25
g12
tp969
tp970
(dp971
g34
(lp972
F0.15
aI4
ass(g379
(F2.25
F0.75
g10
tp973
tp974
(dp975
g34
(lp976
F0.7749999999999999
aI4
ass(g159
(F2.25
F0.75
g1
tp977
tp978
(dp979
g18
(lp980
F0.99
aI1
asg42
(lp981
F0.05
aI3
asg20
(lp982
F0.05
aI3
ass(g369
(F0.75
F1.25
g12
tp983
tp984
(dp985
g18
(lp986
F0.005
aI1
asg20
(lp987
F0.9
aI3
ass(g181
(F0.75
F0.75
g16
tp988
tp989
(dp990
g18
(lp991
F0.99
aI1
asg42
(lp992
F0.05
aI3
asg20
(lp993
F0.05
aI3
ass(g264
(F0.75
F0.25
g16
tp994
tp995
(dp996
g8
(lp997
F0.15
aI2
ass(g323
(F1.25
F0.75
g12
tp998
tp999
(dp1000
g8
(lp1001
F1.0
aI2
ass(g22
(F0.75
F1.25
g16
tp1002
tp1003
(dp1004
g8
(lp1005
F0.8500000000000001
aI2
ass(g720
(F0.25
F0.75
g16
tp1006
tp1007
(dp1008
g18
(lp1009
F0.005
aI1
asg42
(lp1010
F0.9
aI3
ass(g438
(F1.25
F0.75
g16
tp1011
tp1012
(dp1013
g18
(lp1014
F0.005
aI1
asg20
(lp1015
F0.9
aI3
ass(g77
(F1.75
F0.25
g16
tp1016
tp1017
(dp1018
g18
(lp1019
F0.005
aI1
asg42
(lp1020
F0.9
aI3
ass(g313
(F1.25
F0.75
g12
tp1021
tp1022
(dp1023
g18
(lp1024
F0.005
aI1
asg20
(lp1025
F0.9
aI3
ass(g491
(F0.25
F0.75
g16
tp1026
tp1027
(dp1028
g34
(lp1029
F0.7749999999999999
aI4
ass(g176
(F1.75
F0.75
g12
tp1030
tp1031
(dp1032
g18
(lp1033
F0.005
aI1
asg42
(lp1034
F0.9
aI3
ass(g98
(F1.25
F0.75
g12
tp1035
tp1036
(dp1037
g8
(lp1038
F0.8500000000000001
aI2
ass(g49
(F0.25
F1.25
g12
tp1039
tp1040
(dp1041
g18
(lp1042
F0.99
aI1
asg42
(lp1043
F0.05
aI3
asg20
(lp1044
F0.05
aI3
ass(g186
(F1.25
F0.75
g12
tp1045
tp1046
(dp1047
g34
(lp1048
F0.7749999999999999
aI4
ass(g170
(F1.25
F0.75
g10
tp1049
tp1050
(dp1051
g8
(lp1052
F0.8
aI2
ass(g224
(F0.75
F0.75
g12
tp1053
tp1054
(dp1055
g18
(lp1056
F0.005
aI1
asg20
(lp1057
F0.9
aI3
ass(g165
(F2.25
F1.25
g1
tp1058
tp1059
(dp1060
g34
(lp1061
F0.15
aI4
ass(g229
(F2.25
F0.25
g12
tp1062
tp1063
(dp1064
g8
(lp1065
F0.8500000000000001
aI2
ass(g241
(F2.25
F0.75
g12
tp1066
tp1067
(dp1068
g18
(lp1069
F0.005
aI1
asg42
(lp1070
F0.9
aI3
ass(g323
(F0.25
F0.75
g12
tp1071
tp1072
(dp1073
g34
(lp1074
F0.225
aI4
ass(g313
(F0.75
F1.25
g10
tp1075
tp1076
(dp1077
g8
(lp1078
F1.0
aI2
ass(g202
(F0.25
F0.75
g10
tp1079
tp1080
(dp1081
g34
(lp1082
F0.7749999999999999
aI4
ass(g148
(F1.25
F0.25
g1
tp1083
tp1084
(dp1085
g18
(lp1086
F0.005
aI1
asg20
(lp1087
F0.9
aI3
ass(g389
(F0.75
F1.25
g1
tp1088
tp1089
(dp1090
g8
(lp1091
F0.1
aI2
ass(g71
(F1.25
F0.25
g12
tp1092
tp1093
(dp1094
g42
(lp1095
F0.05
aI3
asg20
(lp1096
F0.05
aI3
ass(g148
(F1.75
F0.75
g16
tp1097
tp1098
(dp1099
g34
(lp1100
F0.15
aI4
ass(g334
(F1.25
F0.75
g12
tp1101
tp1102
(dp1103
g18
(lp1104
F0.005
aI1
asg42
(lp1105
F0.9
aI3
ass(g176
(F2.25
F0.25
g16
tp1106
tp1107
(dp1108
g8
(lp1109
F0.1
aI2
ass(g417
(F0.75
F1.25
g12
tp1110
tp1111
(dp1112
g42
(lp1113
F0.05
aI3
asg20
(lp1114
F0.05
aI3
ass(g58
(F0.25
F0.25
g1
tp1115
tp1116
(dp1117
g18
(lp1118
F0.99
aI1
asg42
(lp1119
F0.05
aI3
asg20
(lp1120
F0.05
aI3
ass(g165
(F1.25
F0.25
g1
tp1121
tp1122
(dp1123
g8
(lp1124
F0.15
aI2
ass(g22
(F0.75
F1.75
g10
tp1125
tp1126
(dp1127
g42
(lp1128
F0.05
aI3
asg20
(lp1129
F0.05
aI3
ass(g407
(F1.25
F0.75
g10
tp1130
tp1131
(dp1132
g8
(lp1133
F0.1
aI2
ass(g757
(F2.25
F1.25
g1
tp1134
tp1135
(dp1136
g42
(lp1137
F0.05
aI3
asg20
(lp1138
F0.05
aI3
ass(g276
(F0.25
F0.75
g1
tp1139
tp1140
(dp1141
g42
(lp1142
F0.05
aI3
asg20
(lp1143
F0.05
aI3
ass(g186
(F1.25
F0.25
g12
tp1144
tp1145
(dp1146
g34
(lp1147
F0.225
aI4
ass(g246
(F0.25
F0.75
g10
tp1148
tp1149
(dp1150
g8
(lp1151
F0.8500000000000001
aI2
ass(g58
(F0.75
F0.75
g1
tp1152
tp1153
(dp1154
g34
(lp1155
F0.225
aI4
ass(g282
(F2.25
F0.25
g16
tp1156
tp1157
(dp1158
g18
(lp1159
F0.99
aI1
asg42
(lp1160
F0.05
aI3
asg20
(lp1161
F0.05
aI3
ass(g71
(F1.25
F0.25
g1
tp1162
tp1163
(dp1164
g18
(lp1165
F0.99
aI1
asg42
(lp1166
F0.05
aI3
asg20
(lp1167
F0.05
aI3
ass(g389
(F0.75
F0.25
g1
tp1168
tp1169
(dp1170
g8
(lp1171
F0.1
aI2
ass(g49
(F0.25
F1.25
g10
tp1172
tp1173
(dp1174
g18
(lp1175
F0.005
aI1
asg42
(lp1176
F0.9
aI3
ass(g407
(F0.75
F0.75
g10
tp1177
tp1178
(dp1179
g8
(lp1180
F0.8
aI2
ass(g224
(F0.25
F1.25
g10
tp1181
tp1182
(dp1183
g8
(lp1184
F0.15
aI2
ass(g407
(F0.75
F0.25
g10
tp1185
tp1186
(dp1187
g18
(lp1188
F0.99
aI1
asg42
(lp1189
F0.05
aI3
asg20
(lp1190
F0.05
aI3
ass((F0.75
F1.75
g12
tp1191
(F0.75
F1.75
g1
tp1192
tp1193
(dp1194
g42
(lp1195
F0.05
aI3
asg20
(lp1196
F0.05
aI3
ass(g71
(F0.75
F0.25
g1
tp1197
tp1198
(dp1199
g8
(lp1200
F0.8500000000000001
aI2
ass(g125
(F2.25
F0.75
g16
tp1201
tp1202
(dp1203
g8
(lp1204
F0.8500000000000001
aI2
ass(g224
(F0.75
F1.25
g10
tp1205
tp1206
(dp1207
g8
(lp1208
F0.8500000000000001
aI2
ass(g165
(F1.75
F0.75
g12
tp1209
tp1210
(dp1211
g42
(lp1212
F0.05
aI3
asg20
(lp1213
F0.05
aI3
ass(g11
(F0.75
F1.75
g1
tp1214
tp1215
(dp1216
g18
(lp1217
F0.005
aI1
asg42
(lp1218
F0.9
aI3
ass(g83
(F0.25
F0.75
g1
tp1219
tp1220
(dp1221
g8
(lp1222
F0.15
aI2
ass(g270
(F0.75
F0.25
g16
tp1223
tp1224
(dp1225
g18
(lp1226
F0.99
aI1
asg42
(lp1227
F0.05
aI3
asg20
(lp1228
F0.05
aI3
ass(g604
(F0.25
F1.25
g1
tp1229
tp1230
(dp1231
g18
(lp1232
F0.005
aI1
asg20
(lp1233
F0.9
aI3
ass(g302
(F1.75
F0.25
g12
tp1234
tp1235
(dp1236
g34
(lp1237
F0.7749999999999999
aI4
ass(g270
(F0.25
F0.75
g16
tp1238
tp1239
(dp1240
g34
(lp1241
F0.15
aI4
ass(g757
(F2.25
F1.25
g12
tp1242
tp1243
(dp1244
g18
(lp1245
F0.99
aI1
asg42
(lp1246
F0.05
aI3
asg20
(lp1247
F0.05
aI3
ass(g83
(F0.75
F0.25
g12
tp1248
tp1249
(dp1250
g42
(lp1251
F0.05
aI3
asg20
(lp1252
F0.05
aI3
ass(g417
(F0.25
F1.25
g1
tp1253
tp1254
(dp1255
g8
(lp1256
F0.8500000000000001
aI2
ass(g28
(F0.75
F0.75
g16
tp1257
tp1258
(dp1259
g8
(lp1260
F0.8
aI2
ass(g537
(F0.75
F1.75
g16
tp1261
tp1262
(dp1263
g18
(lp1264
F0.005
aI1
asg42
(lp1265
F0.9
aI3
ass(g1191
(F0.25
F1.25
g12
tp1266
tp1267
(dp1268
g34
(lp1269
F1.0
aI4
ass(g109
(F0.25
F0.25
g10
tp1270
tp1271
(dp1272
g34
(lp1273
F0.7749999999999999
aI4
ass(g323
(F0.75
F1.25
g1
tp1274
tp1275
(dp1276
g42
(lp1277
F0.05
aI3
asg20
(lp1278
F0.05
aI3
ass(g720
(F0.75
F1.25
g1
tp1279
tp1280
(dp1281
g34
(lp1282
F0.15
aI4
ass(g181
(F0.75
F0.75
g12
tp1283
tp1284
(dp1285
g18
(lp1286
F0.005
aI1
asg42
(lp1287
F0.9
aI3
ass(g77
(F2.25
F0.75
g1
tp1288
tp1289
(dp1290
g34
(lp1291
F0.225
aI4
ass(g28
(F0.25
F0.75
g16
tp1292
tp1293
(dp1294
g8
(lp1295
F0.1
aI2
ass(g229
(F2.25
F0.75
g12
tp1296
tp1297
(dp1298
g8
(lp1299
F0.15
aI2
ass(g246
(F0.25
F0.25
g10
tp1300
tp1301
(dp1302
g18
(lp1303
F0.99
aI1
asg42
(lp1304
F0.05
aI3
asg20
(lp1305
F0.05
aI3
ass(g83
(F0.75
F0.25
g16
tp1306
tp1307
(dp1308
g18
(lp1309
F0.005
aI1
asg42
(lp1310
F0.9
aI3
ass(g491
(F0.25
F0.25
g1
tp1311
tp1312
(dp1313
g18
(lp1314
F0.005
aI1
asg20
(lp1315
F0.9
aI3
ass(g276
(F0.25
F0.75
g12
tp1316
tp1317
(dp1318
g18
(lp1319
F0.99
aI1
asg42
(lp1320
F0.05
aI3
asg20
(lp1321
F0.05
aI3
ass(g323
(F0.75
F1.25
g10
tp1322
tp1323
(dp1324
g18
(lp1325
F0.005
aI1
asg42
(lp1326
F0.9
aI3
ass(g11
(F0.75
F1.25
g10
tp1327
tp1328
(dp1329
g34
(lp1330
F0.7749999999999999
aI4
ass(g369
(F0.75
F0.75
g10
tp1331
tp1332
(dp1333
g34
(lp1334
F0.7
aI4
ass(g313
(F1.75
F0.25
g10
tp1335
tp1336
(dp1337
g34
(lp1338
F0.15
aI4
ass(g44
(F0.25
F1.25
g10
tp1339
tp1340
(dp1341
g18
(lp1342
F0.005
aI1
asg20
(lp1343
F0.9
aI3
ass(g165
(F1.25
F0.75
g1
tp1344
tp1345
(dp1346
g8
(lp1347
F0.8500000000000001
aI2
ass(g417
(F1.25
F0.75
g1
tp1348
tp1349
(dp1350
g34
(lp1351
F1.0
aI4
ass(g282
(F1.75
F0.75
g16
tp1352
tp1353
(dp1354
g34
(lp1355
F0.225
aI4
ass(g328
(F1.75
F0.25
g12
tp1356
tp1357
(dp1358
g18
(lp1359
F0.005
aI1
asg20
(lp1360
F0.9
aI3
ass(g181
(F0.75
F0.75
g1
tp1361
tp1362
(dp1363
g18
(lp1364
F0.005
aI1
asg20
(lp1365
F0.9
aI3
ass(g348
(F1.25
F0.25
g16
tp1366
tp1367
(dp1368
g18
(lp1369
F0.005
aI1
asg20
(lp1370
F0.9
aI3
ass(g491
(F0.75
F0.75
g16
tp1371
tp1372
(dp1373
g34
(lp1374
F0.225
aI4
ass(g186
(F1.75
F0.75
g12
tp1375
tp1376
(dp1377
g18
(lp1378
F0.99
aI1
asg42
(lp1379
F0.05
aI3
asg20
(lp1380
F0.05
aI3
ass(g191
(F2.25
F0.25
g12
tp1381
tp1382
(dp1383
g42
(lp1384
F0.05
aI3
asg20
(lp1385
F0.05
aI3
ass(g604
(F0.75
F1.75
g16
tp1386
tp1387
(dp1388
g34
(lp1389
F1.0
aI4
ass(g491
(F0.25
F0.25
g12
tp1390
tp1391
(dp1392
g18
(lp1393
F0.005
aI1
asg42
(lp1394
F0.9
aI3
ass(g328
(F1.75
F0.75
g10
tp1395
tp1396
(dp1397
g8
(lp1398
F0.8
aI2
ass(g132
(F2.25
F0.75
g1
tp1399
tp1400
(dp1401
g42
(lp1402
F0.05
aI3
asg20
(lp1403
F0.05
aI3
ass(g71
(F1.75
F0.75
g1
tp1404
tp1405
(dp1406
g34
(lp1407
F0.225
aI4
ass(g88
(F2.25
F1.25
g10
tp1408
tp1409
(dp1410
g18
(lp1411
F0.005
aI1
asg20
(lp1412
F0.9
aI3
ass(g334
(F1.25
F0.75
g1
tp1413
tp1414
(dp1415
g18
(lp1416
F0.005
aI1
asg20
(lp1417
F0.9
aI3
ass(g1191
(F0.75
F1.75
g16
tp1418
tp1419
(dp1420
g18
(lp1421
F0.005
aI1
asg20
(lp1422
F0.9
aI3
ass(g438
(F1.25
F0.75
g1
tp1423
tp1424
(dp1425
g42
(lp1426
F0.05
aI3
asg20
(lp1427
F0.05
aI3
ass(g417
(F0.25
F0.75
g1
tp1428
tp1429
(dp1430
g8
(lp1431
F0.15
aI2
ass(g302
(F1.75
F0.75
g12
tp1432
tp1433
(dp1434
g34
(lp1435
F0.225
aI4
ass(g44
(F0.75
F1.75
g1
tp1436
tp1437
(dp1438
g34
(lp1439
F0.15
aI4
ass(g11
(F0.25
F1.25
g10
tp1440
tp1441
(dp1442
g34
(lp1443
F0.225
aI4
ass(g235
(F1.75
F0.75
g10
tp1444
tp1445
(dp1446
g8
(lp1447
F0.15
aI2
ass(g11
(F0.75
F1.75
g16
tp1448
tp1449
(dp1450
g42
(lp1451
F0.05
aI3
asg20
(lp1452
F0.05
aI3
ass(g132
(F2.25
F0.75
g16
tp1453
tp1454
(dp1455
g18
(lp1456
F0.005
aI1
asg20
(lp1457
F0.9
aI3
ass(g186
(F1.75
F0.75
g10
tp1458
tp1459
(dp1460
g18
(lp1461
F0.005
aI1
asg42
(lp1462
F0.9
aI3
ass(g556
(F2.25
F0.75
g16
tp1463
tp1464
(dp1465
g42
(lp1466
F0.05
aI3
asg20
(lp1467
F0.05
aI3
ass(g224
(F0.75
F0.75
g1
tp1468
tp1469
(dp1470
g18
(lp1471
F0.005
aI1
asg42
(lp1472
F0.9
aI3
ass(g109
(F0.25
F0.75
g16
tp1473
tp1474
(dp1475
g42
(lp1476
F0.05
aI3
asg20
(lp1477
F0.05
aI3
ass(g49
(F0.75
F1.75
g12
tp1478
tp1479
(dp1480
g8
(lp1481
F0.1
aI2
ass(g176
(F1.75
F0.75
g1
tp1482
tp1483
(dp1484
g18
(lp1485
F0.005
aI1
asg20
(lp1486
F0.9
aI3
ass(g537
(F0.75
F1.75
g1
tp1487
tp1488
(dp1489
g18
(lp1490
F0.99
aI1
asg42
(lp1491
F0.05
aI3
asg20
(lp1492
F0.05
aI3
ass(g241
(F2.25
F1.25
g16
tp1493
tp1494
(dp1495
g34
(lp1496
F1.0
aI4
ass(g229
(F1.75
F0.25
g12
tp1497
tp1498
(dp1499
g18
(lp1500
F0.99
aI1
asg42
(lp1501
F0.05
aI3
asg20
(lp1502
F0.05
aI3
ass(g302
(F2.25
F0.25
g16
tp1503
tp1504
(dp1505
g18
(lp1506
F0.005
aI1
asg20
(lp1507
F0.9
aI3
ass(g604
(F0.25
F1.25
g16
tp1508
tp1509
(dp1510
g18
(lp1511
F0.99
aI1
asg42
(lp1512
F0.05
aI3
asg20
(lp1513
F0.05
aI3
ass(g389
(F1.25
F0.75
g12
tp1514
tp1515
(dp1516
g42
(lp1517
F0.05
aI3
asg20
(lp1518
F0.05
aI3
ass(g214
(F2.25
F1.25
g10
tp1519
tp1520
(dp1521
g8
(lp1522
F1.0
aI2
ass(g98
(F0.25
F1.25
g12
tp1523
tp1524
(dp1525
g34
(lp1526
F0.15
aI4
ass(g246
(F0.25
F0.25
g16
tp1527
tp1528
(dp1529
g42
(lp1530
F0.05
aI3
asg20
(lp1531
F0.05
aI3
ass(g389
(F1.75
F0.25
g1
tp1532
tp1533
(dp1534
g34
(lp1535
F0.225
aI4
ass(g49
(F0.25
F1.25
g1
tp1536
tp1537
(dp1538
g42
(lp1539
F0.05
aI3
asg20
(lp1540
F0.05
aI3
ass(g270
(F0.75
F0.75
g16
tp1541
tp1542
(dp1543
g34
(lp1544
F0.7
aI4
ass(g77
(F1.25
F0.75
g1
tp1545
tp1546
(dp1547
g8
(lp1548
F0.15
aI2
ass(g58
(F0.25
F0.25
g12
tp1549
tp1550
(dp1551
g42
(lp1552
F0.05
aI3
asg20
(lp1553
F0.05
aI3
ass(g159
(F1.75
F0.25
g1
tp1554
tp1555
(dp1556
g8
(lp1557
F0.15
aI2
ass(g757
(F1.75
F0.75
g12
tp1558
tp1559
(dp1560
g34
(lp1561
F1.0
aI4
ass(g77
(F1.75
F0.25
g1
tp1562
tp1563
(dp1564
g18
(lp1565
F0.99
aI1
asg42
(lp1566
F0.05
aI3
asg20
(lp1567
F0.05
aI3
ass(g328
(F1.75
F0.25
g10
tp1568
tp1569
(dp1570
g18
(lp1571
F0.99
aI1
asg42
(lp1572
F0.05
aI3
asg20
(lp1573
F0.05
aI3
ass(g36
(F0.25
F0.25
g12
tp1574
tp1575
(dp1576
g34
(lp1577
F0.7749999999999999
aI4
ass(g125
(F2.25
F1.25
g10
tp1578
tp1579
(dp1580
g42
(lp1581
F0.05
aI3
asg20
(lp1582
F0.05
aI3
ass(g520
(F1.75
F0.25
g10
tp1583
tp1584
(dp1585
g42
(lp1586
F0.05
aI3
asg20
(lp1587
F0.05
aI3
ass(g520
(F1.25
F0.75
g16
tp1588
tp1589
(dp1590
g34
(lp1591
F0.15
aI4
ass(g348
(F0.75
F0.25
g12
tp1592
tp1593
(dp1594
g34
(lp1595
F0.7749999999999999
aI4
ass(g58
(F0.75
F0.25
g1
tp1596
tp1597
(dp1598
g34
(lp1599
F0.7749999999999999
aI4
ass(g556
(F2.25
F0.75
g1
tp1600
tp1601
(dp1602
g18
(lp1603
F0.005
aI1
asg42
(lp1604
F0.9
aI3
ass(g417
(F0.75
F1.25
g1
tp1605
tp1606
(dp1607
g18
(lp1608
F0.99
aI1
asg42
(lp1609
F0.05
aI3
asg20
(lp1610
F0.05
aI3
ass(g720
(F0.25
F0.75
g1
tp1611
tp1612
(dp1613
g18
(lp1614
F0.99
aI1
asg42
(lp1615
F0.05
aI3
asg20
(lp1616
F0.05
aI3
ass(g148
(F1.25
F0.75
g16
tp1617
tp1618
(dp1619
g34
(lp1620
F0.7
aI4
ass(g407
(F0.75
F0.25
g12
tp1621
tp1622
(dp1623
g18
(lp1624
F0.005
aI1
asg20
(lp1625
F0.9
aI3
ass(g125
(F2.25
F1.25
g1
tp1626
tp1627
(dp1628
g18
(lp1629
F0.005
aI1
asg20
(lp1630
F0.9
aI3
ass(g276
(F0.75
F1.25
g12
tp1631
tp1632
(dp1633
g8
(lp1634
F0.1
aI2
ass(g438
(F1.75
F0.75
g12
tp1635
tp1636
(dp1637
g8
(lp1638
F0.8500000000000001
aI2
ass(g1191
(F0.75
F1.75
g12
tp1639
tp1640
(dp1641
g18
(lp1642
F0.99
aI1
asg42
(lp1643
F0.05
aI3
asg20
(lp1644
F0.05
aI3
ass(g520
(F1.75
F0.25
g12
tp1645
tp1646
(dp1647
g18
(lp1648
F0.005
aI1
asg42
(lp1649
F0.9
aI3
ass(g64
(F0.75
F0.75
g12
tp1650
tp1651
(dp1652
g8
(lp1653
F0.15
aI2
ass(g229
(F1.75
F0.25
g10
tp1654
tp1655
(dp1656
g18
(lp1657
F0.005
aI1
asg42
(lp1658
F0.9
aI3
ass(g720
(F0.75
F0.75
g1
tp1659
tp1660
(dp1661
g34
(lp1662
F0.7
aI4
ass(g264
(F0.25
F0.75
g10
tp1663
tp1664
(dp1665
g42
(lp1666
F0.05
aI3
asg20
(lp1667
F0.05
aI3
ass(g520
(F1.75
F0.75
g16
tp1668
tp1669
(dp1670
g34
(lp1671
F0.7
aI4
ass(g214
(F1.25
F0.25
g10
tp1672
tp1673
(dp1674
g34
(lp1675
F0.15
aI4
ass(g379
(F2.25
F1.25
g1
tp1676
tp1677
(dp1678
g18
(lp1679
F0.005
aI1
asg42
(lp1680
F0.9
aI3
ass(g241
(F2.25
F0.75
g1
tp1681
tp1682
(dp1683
g18
(lp1684
F0.005
aI1
asg20
(lp1685
F0.9
aI3
ass(g537
(F0.75
F1.75
g12
tp1686
tp1687
(dp1688
g42
(lp1689
F0.05
aI3
asg20
(lp1690
F0.05
aI3
ass(g186
(F2.25
F1.25
g12
tp1691
tp1692
(dp1693
g8
(lp1694
F0.1
aI2
ass(g11
(F0.75
F1.75
g10
tp1695
tp1696
(dp1697
g18
(lp1698
F0.99
aI1
asg42
(lp1699
F0.05
aI3
asg20
(lp1700
F0.05
aI3
ass(g235
(F2.25
F0.25
g12
tp1701
tp1702
(dp1703
g18
(lp1704
F0.005
aI1
asg20
(lp1705
F0.9
aI3
ass(g556
(F2.25
F0.75
g10
tp1706
tp1707
(dp1708
g18
(lp1709
F0.99
aI1
asg42
(lp1710
F0.05
aI3
asg20
(lp1711
F0.05
aI3
ass(g241
(F2.25
F0.75
g10
tp1712
tp1713
(dp1714
g42
(lp1715
F0.05
aI3
asg20
(lp1716
F0.05
aI3
ass(g369
(F0.75
F1.25
g1
tp1717
tp1718
(dp1719
g18
(lp1720
F0.005
aI1
asg42
(lp1721
F0.9
aI3
ass(g77
(F1.25
F0.25
g1
tp1722
tp1723
(dp1724
g8
(lp1725
F0.8500000000000001
aI2
ass(g407
(F0.75
F0.25
g16
tp1726
tp1727
(dp1728
g42
(lp1729
F0.05
aI3
asg20
(lp1730
F0.05
aI3
ass(g264
(F0.25
F1.25
g16
tp1731
tp1732
(dp1733
g34
(lp1734
F0.7749999999999999
aI4
ass(g36
(F1.25
F0.25
g12
tp1735
tp1736
(dp1737
g8
(lp1738
F0.8500000000000001
aI2
ass(g313
(F1.25
F0.75
g10
tp1739
tp1740
(dp1741
g18
(lp1742
F0.99
aI1
asg42
(lp1743
F0.05
aI3
asg20
(lp1744
F0.05
aI3
ass(g270
(F0.75
F0.25
g1
tp1745
tp1746
(dp1747
g18
(lp1748
F0.005
aI1
asg20
(lp1749
F0.9
aI3
ass(g165
(F1.75
F0.75
g1
tp1750
tp1751
(dp1752
g18
(lp1753
F0.99
aI1
asg42
(lp1754
F0.05
aI3
asg20
(lp1755
F0.05
aI3
ass(g44
(F0.25
F1.25
g1
tp1756
tp1757
(dp1758
g18
(lp1759
F0.99
aI1
asg42
(lp1760
F0.05
aI3
asg20
(lp1761
F0.05
aI3
ass(g270
(F1.25
F0.75
g16
tp1762
tp1763
(dp1764
g34
(lp1765
F0.15
aI4
ass(g83
(F0.75
F0.25
g1
tp1766
tp1767
(dp1768
g18
(lp1769
F0.99
aI1
asg42
(lp1770
F0.05
aI3
asg20
(lp1771
F0.05
aI3
ass(g64
(F0.25
F0.25
g1
tp1772
tp1773
(dp1774
g42
(lp1775
F0.05
aI3
asg20
(lp1776
F0.05
aI3
ass(g1191
(F0.75
F1.75
g10
tp1777
tp1778
(dp1779
g18
(lp1780
F0.005
aI1
asg42
(lp1781
F0.9
aI3
ass(g491
(F0.25
F0.25
g16
tp1782
tp1783
(dp1784
g18
(lp1785
F0.99
aI1
asg42
(lp1786
F0.05
aI3
asg20
(lp1787
F0.05
aI3
ass(g369
(F0.75
F1.25
g10
tp1788
tp1789
(dp1790
g18
(lp1791
F0.99
aI1
asg42
(lp1792
F0.05
aI3
asg20
(lp1793
F0.05
aI3
ass(g604
(F0.25
F1.25
g10
tp1794
tp1795
(dp1796
g42
(lp1797
F0.05
aI3
asg20
(lp1798
F0.05
aI3
ass(g328
(F1.75
F0.25
g16
tp1799
tp1800
(dp1801
g42
(lp1802
F0.05
aI3
asg20
(lp1803
F0.05
aI3
ass(g328
(F2.25
F0.75
g10
tp1804
tp1805
(dp1806
g8
(lp1807
F0.1
aI2
ass(g2
(F1.25
F0.25
g1
tp1808
tp1809
(dp1810
g34
(lp1811
F0.225
aI4
ass(g379
(F1.75
F0.75
g10
tp1812
tp1813
(dp1814
g34
(lp1815
F0.225
aI4
ass(g241
(F2.25
F0.75
g16
tp1816
tp1817
(dp1818
g18
(lp1819
F0.99
aI1
asg42
(lp1820
F0.05
aI3
asg20
(lp1821
F0.05
aI3
ass(g44
(F0.25
F1.25
g12
tp1822
tp1823
(dp1824
g42
(lp1825
F0.05
aI3
asg20
(lp1826
F0.05
aI3
ass(g58
(F0.25
F0.25
g16
tp1827
tp1828
(dp1829
g18
(lp1830
F0.005
aI1
asg42
(lp1831
F0.9
aI3
ass(g148
(F0.75
F0.75
g16
tp1832
tp1833
(dp1834
g34
(lp1835
F0.15
aI4
ass(g520
(F2.25
F0.75
g16
tp1836
tp1837
(dp1838
g34
(lp1839
F0.15
aI4
ass(g276
(F0.25
F0.75
g10
tp1840
tp1841
(dp1842
g18
(lp1843
F0.005
aI1
asg42
(lp1844
F0.9
aI3
ass(g132
(F1.75
F0.75
g12
tp1845
tp1846
(dp1847
g34
(lp1848
F0.7749999999999999
aI4
ass(g64
(F0.25
F0.25
g10
tp1849
tp1850
(dp1851
g18
(lp1852
F0.005
aI1
asg42
(lp1853
F0.9
aI3
ass(g214
(F1.75
F0.25
g10
tp1854
tp1855
(dp1856
g34
(lp1857
F0.7
aI4
ass(g720
(F0.75
F0.25
g1
tp1858
tp1859
(dp1860
g34
(lp1861
F0.15
aI4
ass(g109
(F0.25
F0.75
g12
tp1862
tp1863
(dp1864
g18
(lp1865
F0.005
aI1
asg20
(lp1866
F0.9
aI3
ass(g64
(F0.25
F0.25
g16
tp1867
tp1868
(dp1869
g18
(lp1870
F0.005
aI1
asg20
(lp1871
F0.9
aI3
ass(g389
(F1.25
F0.75
g1
tp1872
tp1873
(dp1874
g18
(lp1875
F0.99
aI1
asg42
(lp1876
F0.05
aI3
asg20
(lp1877
F0.05
aI3
ass(g170
(F0.75
F0.75
g10
tp1878
tp1879
(dp1880
g8
(lp1881
F0.1
aI2
ass(g165
(F1.75
F0.75
g16
tp1882
tp1883
(dp1884
g18
(lp1885
F0.005
aI1
asg42
(lp1886
F0.9
aI3
ass(g2
(F0.75
F0.75
g16
tp1887
tp1888
(dp1889
g18
(lp1890
F0.005
aI1
asg42
(lp1891
F0.9
aI3
ass(g83
(F0.25
F0.25
g1
tp1892
tp1893
(dp1894
g8
(lp1895
F0.8500000000000001
aI2
ass(g176
(F1.75
F0.75
g10
tp1896
tp1897
(dp1898
g42
(lp1899
F0.05
aI3
asg20
(lp1900
F0.05
aI3
ass(g202
(F0.75
F1.75
g10
tp1901
tp1902
(dp1903
g8
(lp1904
F1.0
aI2
ass(g64
(F0.75
F0.25
g12
tp1905
tp1906
(dp1907
g8
(lp1908
F0.8500000000000001
aI2
ass(g176
(F2.25
F1.25
g16
tp1909
tp1910
(dp1911
g34
(lp1912
F1.0
aI4
ass(g159
(F2.25
F0.75
g10
tp1913
tp1914
(dp1915
g18
(lp1916
F0.005
aI1
asg20
(lp1917
F0.9
aI3
ass(g36
(F0.75
F0.25
g16
tp1918
tp1919
(dp1920
g18
(lp1921
F0.005
aI1
asg20
(lp1922
F0.9
aI3
ass(g181
(F0.25
F1.25
g16
tp1923
tp1924
(dp1925
g34
(lp1926
F0.225
aI4
ass(g186
(F1.75
F0.75
g1
tp1927
tp1928
(dp1929
g42
(lp1930
F0.05
aI3
asg20
(lp1931
F0.05
aI3
ass(g235
(F2.25
F0.25
g1
tp1932
tp1933
(dp1934
g18
(lp1935
F0.005
aI1
asg42
(lp1936
F0.9
aI3
ass(g313
(F1.25
F0.25
g10
tp1937
tp1938
(dp1939
g34
(lp1940
F0.7
aI4
ass(g348
(F1.25
F0.25
g12
tp1941
tp1942
(dp1943
g18
(lp1944
F0.99
aI1
asg42
(lp1945
F0.05
aI3
asg20
(lp1946
F0.05
aI3
ass(g379
(F2.25
F1.25
g16
tp1947
tp1948
(dp1949
g42
(lp1950
F0.05
aI3
asg20
(lp1951
F0.05
aI3
ass.