((lp0
((F0.25
F0.25
S'E'
p1
tp2
c__builtin__
frozenset
p3
((lp4
tp5
Rp6
I0
tp7
a((F0.75
F0.75
g1
tp8
g6
I0
tp9
a((F0.75
F0.75
S'S'
p10
tp11
g6
I0
tp12
a((F0.75
F0.25
g10
tp13
g6
I0
tp14
a((F0.75
F0.25
g1
tp15
g6
I0
tp16
a((F1.25
F0.25
g1
tp17
g6
I0
tp18
a((F1.75
F0.25
g1
tp19
g6
I0
tp20
a((F2.25
F0.25
g1
tp21
g3
((lp22
S'base1'
p23
aS'base'
p24
atp25
Rp26
I0
tp27
a((F2.25
F0.25
S'N'
p28
tp29
g26
I1
tp30
a((F2.25
F0.75
g28
tp31
g6
I1
tp32
a(lp33
S"('F', 'R')"
p34
aS"('T', 'R')"
p35
aS"('F', 'R')"
p36
aS"('T', 'L')"
p37
aS"('F', 'R')"
p38
aS"('F', 'R')"
p39
aS"('F', 'R')"
p40
aS"('T', 'L')"
p41
aS"('F', 'R')"
p42
aS"('F', 'R')"
p43
atp44
.