((dp0
(F5.0
F9.0
tp1
(dp2
c__builtin__
frozenset
p3
((lp4
tp5
Rp6
F1.0
ss(F1.0
F3.0
tp7
(dp8
g6
F1.0
ss(F9.0
F1.0
tp9
(dp10
g3
((lp11
S'base1'
p12
aS'base'
p13
atp14
Rp15
F1.0
sg6
F0.0
ss(F7.0
F3.0
tp16
(dp17
g6
F1.0
ss(F7.0
F7.0
tp18
(dp19
g6
F1.0
ss(F3.0
F7.0
tp20
(dp21
g6
F1.0
ss(F5.0
F1.0
tp22
(dp23
g6
F1.0
ss(F5.0
F5.0
tp24
(dp25
g3
((lp26
S'top'
p27
aS'obstacle'
p28
atp29
Rp30
F0.9
sg6
F0.1
ss(F1.0
F5.0
tp31
(dp32
g6
F1.0
ss(F5.0
F7.0
tp33
(dp34
g6
F0.9
sg3
((lp35
g28
aS'low'
p36
atp37
Rp38
F0.1
ss(F3.0
F3.0
tp39
(dp40
g6
F1.0
ss(F3.0
F5.0
tp41
(dp42
g6
F0.9
sg3
((lp43
g28
ag36
atp44
Rp45
F0.1
ss(F1.0
F1.0
tp46
(dp47
g6
F1.0
ss(F9.0
F7.0
tp48
(dp49
g6
F1.0
ss(F7.0
F1.0
tp50
(dp51
g6
F1.0
ss(F9.0
F3.0
tp52
(dp53
g6
F1.0
ss(F7.0
F5.0
tp54
(dp55
g6
F0.9
sg3
((lp56
g28
ag36
atp57
Rp58
F0.1
ss(F1.0
F9.0
tp59
(dp60
g6
F0.0
sg3
((lp61
S'base3'
p62
ag13
atp63
Rp64
F1.0
ss(F5.0
F3.0
tp65
(dp66
g6
F0.9
sg3
((lp67
g28
ag36
atp68
Rp69
F0.1
ss(F3.0
F1.0
tp70
(dp71
g6
F1.0
ss(F9.0
F9.0
tp72
(dp73
g3
((lp74
S'base2'
p75
ag13
atp76
Rp77
F1.0
sg6
F0.0
ss(F3.0
F9.0
tp78
(dp79
g6
F1.0
ss(F7.0
F9.0
tp80
(dp81
g6
F1.0
ss(F1.0
F7.0
tp82
(dp83
g6
F1.0
ss(F9.0
F5.0
tp84
(dp85
g6
F1.0
ssI1
tp86
.