((dp0
(F1.75
F0.25
tp1
(dp2
c__builtin__
frozenset
p3
((lp4
tp5
Rp6
F1.0
ss(F0.75
F1.75
tp7
(dp8
g6
F1.0
ss(F2.25
F0.25
tp9
(dp10
g3
((lp11
S'base1'
p12
aS'base'
p13
atp14
Rp15
F1.0
sg6
F0.0
ss(F2.25
F1.25
tp16
(dp17
g3
((lp18
S'base2'
p19
ag13
atp20
Rp21
F1.0
sg6
F0.0
ss(F2.25
F0.75
tp22
(dp23
g6
F1.0
ss(F0.25
F0.75
tp24
(dp25
g6
F1.0
ss(F1.75
F0.75
tp26
(dp27
g6
F1.0
ss(F0.75
F0.75
tp28
(dp29
g6
F1.0
ss(F0.75
F1.25
tp30
(dp31
g6
F0.9
sg3
((lp32
S'obstacle'
p33
aS'low'
p34
atp35
Rp36
F0.1
ss(F0.75
F0.25
tp37
(dp38
g6
F1.0
ss(F0.25
F0.25
tp39
(dp40
g6
F1.0
ss(F1.25
F0.75
tp41
(dp42
g6
F1.0
ss(F1.25
F0.25
tp43
(dp44
g6
F1.0
ss(F0.25
F1.25
tp45
(dp46
g6
F0.0
sg3
((lp47
S'base3'
p48
ag13
atp49
Rp50
F1.0
ssF0.25
tp51
.