((dp0
(F1.75
F0.25
tp1
(dp2
c__builtin__
frozenset
p3
((lp4
tp5
Rp6
F1.0
ss(F2.25
F0.25
tp7
(dp8
g3
((lp9
S'base1'
p10
aS'base'
p11
atp12
Rp13
F1.0
sg6
F0.0
ss(F1.75
F0.75
tp14
(dp15
g6
F1.0
ss(F1.75
F1.25
tp16
(dp17
g6
F1.0
ss(F0.75
F0.75
tp18
(dp19
g6
F1.0
ss(F0.75
F1.25
tp20
(dp21
g6
F1.0
ss(F0.75
F0.25
tp22
(dp23
g6
F1.0
ss(F0.25
F1.25
tp24
(dp25
g6
F0.0
sg3
((lp26
S'base3'
p27
ag11
atp28
Rp29
F1.0
ss(F2.25
F1.25
tp30
(dp31
g3
((lp32
S'base2'
p33
ag11
atp34
Rp35
F1.0
sg6
F0.0
ss(F1.25
F0.25
tp36
(dp37
g6
F1.0
ss(F0.25
F0.75
tp38
(dp39
g6
F1.0
ss(F0.25
F0.25
tp40
(dp41
g6
F1.0
ss(F1.25
F1.25
tp42
(dp43
g6
F0.9
sg3
((lp44
S'obstacle'
p45
aS'low'
p46
atp47
Rp48
F0.1
ss(F2.25
F0.75
tp49
(dp50
g6
F1.0
ss(F1.25
F0.75
tp51
(dp52
g6
F1.0
ssF0.25
tp53
.