(dp0
((F2.25
F0.75
S'W'
p1
tp2
(F1.75
F0.25
g1
tp3
tp4
(dp5
(S'F'
p6
S'R'
p7
tp8
(lp9
F0.1
aI2
ass((F1.75
F0.75
S'N'
p10
tp11
(F1.75
F0.75
S'E'
p12
tp13
tp14
(dp15
(S'S'
p16
S'T'
p17
tp18
(lp19
F0.005
aI1
as(g17
g7
tp20
(lp21
F0.9
aI3
ass((F0.75
F1.25
g16
tp22
(F0.75
F1.25
g1
tp23
tp24
(dp25
g18
(lp26
F0.005
aI1
asg20
(lp27
F0.9
aI3
ass((F2.25
F0.25
g1
tp28
(F2.25
F0.25
g16
tp29
tp30
(dp31
g18
(lp32
F0.005
aI1
as(g17
S'L'
p33
tp34
(lp35
F0.9
aI3
ass((F0.75
F0.25
g12
tp36
(F0.75
F0.25
g10
tp37
tp38
(dp39
g18
(lp40
F0.005
aI1
asg34
(lp41
F0.9
aI3
ass((F0.25
F1.25
g1
tp42
(F0.75
F1.25
g1
tp43
tp44
(dp45
(S'B'
p46
S'K'
p47
tp48
(lp49
F0.7749999999999999
aI4
ass((F0.75
F1.25
g12
tp50
(F1.25
F1.25
g12
tp51
tp52
(dp53
g8
(lp54
F0.8500000000000001
aI2
ass((F0.75
F0.75
g16
tp55
(F1.25
F1.25
g16
tp56
tp57
(dp58
g48
(lp59
F0.15
aI4
ass(g2
(F1.75
F1.25
g1
tp60
tp61
(dp62
g8
(lp63
F0.1
aI2
ass((F0.25
F0.25
g1
tp64
(F0.25
F0.25
g10
tp65
tp66
(dp67
g18
(lp68
F0.005
aI1
asg20
(lp69
F0.9
aI3
ass((F0.25
F0.25
g12
tp70
(F0.25
F0.25
g12
tp71
tp72
(dp73
g18
(lp74
F0.99
aI1
asg34
(lp75
F0.05
aI3
asg20
(lp76
F0.05
aI3
ass((F1.25
F0.25
g1
tp77
(F1.25
F0.25
g16
tp78
tp79
(dp80
g18
(lp81
F0.005
aI1
asg34
(lp82
F0.9
aI3
ass((F1.25
F1.25
g12
tp83
(F1.75
F1.25
g12
tp84
tp85
(dp86
g8
(lp87
F0.8500000000000001
aI2
ass((F1.25
F1.25
g10
tp88
(F1.25
F1.25
g10
tp89
tp90
(dp91
g18
(lp92
F0.99
aI1
asg34
(lp93
F0.05
aI3
asg20
(lp94
F0.05
aI3
ass((F0.75
F0.25
g1
tp95
(F1.25
F0.25
g1
tp96
tp97
(dp98
g48
(lp99
F0.7749999999999999
aI4
ass((F1.75
F1.25
g12
tp100
(F1.75
F1.25
g16
tp101
tp102
(dp103
g18
(lp104
F0.005
aI1
asg20
(lp105
F0.9
aI3
ass((F1.75
F1.25
g16
tp106
(F1.75
F0.75
g16
tp107
tp108
(dp109
g8
(lp110
F0.8
aI2
ass(g88
(F1.25
F1.25
g1
tp111
tp112
(dp113
g18
(lp114
F0.005
aI1
asg34
(lp115
F0.9
aI3
ass(g95
(F0.75
F0.25
g1
tp116
tp117
(dp118
g18
(lp119
F0.99
aI1
asg34
(lp120
F0.05
aI3
asg20
(lp121
F0.05
aI3
ass(g36
(F0.75
F0.25
g1
tp122
tp123
(dp124
g34
(lp125
F0.05
aI3
asg20
(lp126
F0.05
aI3
ass((F1.25
F0.75
g12
tp127
(F1.25
F0.75
g12
tp128
tp129
(dp130
g18
(lp131
F0.99
aI1
asg34
(lp132
F0.05
aI3
asg20
(lp133
F0.05
aI3
ass((F1.75
F0.75
g16
tp134
(F1.75
F0.75
g16
tp135
tp136
(dp137
g18
(lp138
F0.99
aI1
asg34
(lp139
F0.05
aI3
asg20
(lp140
F0.05
aI3
ass(g50
(F0.75
F1.25
g10
tp141
tp142
(dp143
g18
(lp144
F0.005
aI1
asg34
(lp145
F0.9
aI3
ass((F0.25
F1.25
g10
tp146
(F0.75
F0.75
g10
tp147
tp148
(dp149
g48
(lp150
F0.225
aI4
ass((F1.25
F0.25
g16
tp151
(F1.25
F0.25
g10
tp152
tp153
(dp154
g34
(lp155
F0.05
aI3
asg20
(lp156
F0.05
aI3
ass(g2
(F2.25
F0.75
g10
tp157
tp158
(dp159
g18
(lp160
F0.005
aI1
asg20
(lp161
F0.9
aI3
ass((F1.75
F0.25
g1
tp162
(F1.75
F0.25
g16
tp163
tp164
(dp165
g18
(lp166
F0.005
aI1
asg34
(lp167
F0.9
aI3
ass((F1.75
F0.75
g1
tp168
(F2.25
F0.75
g1
tp169
tp170
(dp171
g48
(lp172
F0.7
aI4
ass(g134
(F1.75
F0.75
g10
tp173
tp174
(dp175
g34
(lp176
F0.05
aI3
asg20
(lp177
F0.05
aI3
ass((F0.25
F0.75
g10
tp178
(F0.25
F0.75
g1
tp179
tp180
(dp181
g18
(lp182
F0.005
aI1
asg34
(lp183
F0.9
aI3
ass((F1.75
F0.25
g10
tp184
(F1.75
F0.25
g16
tp185
tp186
(dp187
g34
(lp188
F0.05
aI3
asg20
(lp189
F0.05
aI3
ass(g134
(F1.75
F0.25
g16
tp190
tp191
(dp192
g8
(lp193
F0.8
aI2
ass(g55
(F0.75
F0.25
g16
tp194
tp195
(dp196
g8
(lp197
F0.8
aI2
ass((F2.25
F0.25
g12
tp198
(F1.75
F0.25
g12
tp199
tp200
(dp201
g48
(lp202
F0.7749999999999999
aI4
ass((F0.25
F0.75
g1
tp203
(F0.25
F0.75
g1
tp204
tp205
(dp206
g18
(lp207
F0.99
aI1
asg34
(lp208
F0.05
aI3
asg20
(lp209
F0.05
aI3
ass(g28
(F2.25
F0.25
g1
tp210
tp211
(dp212
g18
(lp213
F0.99
aI1
asg34
(lp214
F0.05
aI3
asg20
(lp215
F0.05
aI3
ass(g42
(F0.75
F0.75
g1
tp216
tp217
(dp218
g48
(lp219
F0.225
aI4
ass(g28
(F2.25
F0.25
g10
tp220
tp221
(dp222
g18
(lp223
F0.005
aI1
asg20
(lp224
F0.9
aI3
ass((F1.25
F1.25
g16
tp225
(F1.25
F1.25
g1
tp226
tp227
(dp228
g18
(lp229
F0.005
aI1
asg20
(lp230
F0.9
aI3
ass(g151
(F1.25
F0.25
g16
tp231
tp232
(dp233
g18
(lp234
F0.99
aI1
asg34
(lp235
F0.05
aI3
asg20
(lp236
F0.05
aI3
ass(g88
(F1.75
F0.75
g10
tp237
tp238
(dp239
g48
(lp240
F0.15
aI4
ass(g55
(F1.25
F0.25
g16
tp241
tp242
(dp243
g8
(lp244
F0.1
aI2
ass((F0.75
F0.75
g12
tp245
(F1.25
F1.25
g12
tp246
tp247
(dp248
g8
(lp249
F0.1
aI2
ass((F0.75
F0.75
g10
tp250
(F0.25
F0.25
g10
tp251
tp252
(dp253
g48
(lp254
F0.15
aI4
ass((F1.25
F0.25
g12
tp255
(F1.25
F0.25
g16
tp256
tp257
(dp258
g18
(lp259
F0.005
aI1
asg20
(lp260
F0.9
aI3
ass(g178
(F0.75
F1.25
g10
tp261
tp262
(dp263
g8
(lp264
F0.15
aI2
ass(g11
(F1.75
F0.75
g16
tp265
tp266
(dp267
g34
(lp268
F0.05
aI3
asg20
(lp269
F0.05
aI3
ass((F2.25
F0.75
g16
tp270
(F2.25
F0.25
g16
tp271
tp272
(dp273
g8
(lp274
F0.8500000000000001
aI2
ass(g88
(F1.25
F1.25
g12
tp275
tp276
(dp277
g18
(lp278
F0.005
aI1
asg20
(lp279
F0.9
aI3
ass(g146
(F0.25
F1.25
g10
tp280
tp281
(dp282
g18
(lp283
F0.99
aI1
asg34
(lp284
F0.05
aI3
asg20
(lp285
F0.05
aI3
ass(g100
(F2.25
F1.25
g12
tp286
tp287
(dp288
g8
(lp289
F0.8500000000000001
aI2
ass((F0.25
F0.75
g16
tp290
(F0.25
F0.75
g12
tp291
tp292
(dp293
g18
(lp294
F0.005
aI1
asg34
(lp295
F0.9
aI3
ass((F2.25
F0.25
g16
tp296
(F2.25
F0.25
g10
tp297
tp298
(dp299
g34
(lp300
F0.05
aI3
asg20
(lp301
F0.05
aI3
ass(g106
(F1.25
F0.75
g16
tp302
tp303
(dp304
g8
(lp305
F0.1
aI2
ass(g100
(F2.25
F0.75
g12
tp306
tp307
(dp308
g8
(lp309
F0.15
aI2
ass((F0.75
F0.75
g1
tp310
(F1.25
F1.25
g1
tp311
tp312
(dp313
g48
(lp314
F0.15
aI4
ass((F1.25
F0.25
g10
tp315
(F1.25
F0.25
g16
tp316
tp317
(dp318
g34
(lp319
F0.05
aI3
asg20
(lp320
F0.05
aI3
ass((F0.25
F0.75
g12
tp321
(F0.25
F0.75
g16
tp322
tp323
(dp324
g18
(lp325
F0.005
aI1
asg20
(lp326
F0.9
aI3
ass(g106
(F1.75
F1.25
g16
tp327
tp328
(dp329
g18
(lp330
F0.99
aI1
asg34
(lp331
F0.05
aI3
asg20
(lp332
F0.05
aI3
ass((F2.25
F1.25
g1
tp333
(F2.25
F1.25
g12
tp334
tp335
(dp336
g34
(lp337
F0.05
aI3
asg20
(lp338
F0.05
aI3
ass((F1.25
F1.25
g1
tp339
(F1.25
F1.25
g16
tp340
tp341
(dp342
g18
(lp343
F0.005
aI1
asg34
(lp344
F0.9
aI3
ass(g339
(F0.75
F1.25
g1
tp345
tp346
(dp347
g8
(lp348
F0.8500000000000001
aI2
ass(g168
(F1.75
F0.75
g16
tp349
tp350
(dp351
g18
(lp352
F0.005
aI1
asg34
(lp353
F0.9
aI3
ass(g250
(F0.75
F0.75
g16
tp354
tp355
(dp356
g34
(lp357
F0.05
aI3
asg20
(lp358
F0.05
aI3
ass(g127
(F1.25
F0.75
g1
tp359
tp360
(dp361
g34
(lp362
F0.05
aI3
asg20
(lp363
F0.05
aI3
ass((F1.75
F1.25
g10
tp364
(F1.75
F1.25
g1
tp365
tp366
(dp367
g18
(lp368
F0.005
aI1
asg34
(lp369
F0.9
aI3
ass((F0.75
F1.25
g10
tp370
(F0.75
F1.25
g1
tp371
tp372
(dp373
g18
(lp374
F0.005
aI1
asg34
(lp375
F0.9
aI3
ass(g270
(F2.25
F0.75
g12
tp376
tp377
(dp378
g18
(lp379
F0.005
aI1
asg34
(lp380
F0.9
aI3
ass(g83
(F1.25
F1.25
g1
tp381
tp382
(dp383
g34
(lp384
F0.05
aI3
asg20
(lp385
F0.05
aI3
ass(g321
(F0.25
F0.75
g10
tp386
tp387
(dp388
g18
(lp389
F0.005
aI1
asg34
(lp390
F0.9
aI3
ass((F1.25
F0.75
g16
tp391
(F0.75
F0.25
g16
tp392
tp393
(dp394
g8
(lp395
F0.1
aI2
ass((F2.25
F0.75
g12
tp396
(F2.25
F0.75
g12
tp397
tp398
(dp399
g18
(lp400
F0.99
aI1
asg34
(lp401
F0.05
aI3
asg20
(lp402
F0.05
aI3
ass(g296
(F2.25
F0.25
g12
tp403
tp404
(dp405
g18
(lp406
F0.005
aI1
asg34
(lp407
F0.9
aI3
ass(g255
(F1.25
F0.25
g1
tp408
tp409
(dp410
g34
(lp411
F0.05
aI3
asg20
(lp412
F0.05
aI3
ass(g225
(F1.25
F1.25
g16
tp413
tp414
(dp415
g18
(lp416
F0.99
aI1
asg34
(lp417
F0.05
aI3
asg20
(lp418
F0.05
aI3
ass(g198
(F2.25
F0.25
g10
tp419
tp420
(dp421
g18
(lp422
F0.005
aI1
asg34
(lp423
F0.9
aI3
ass(g225
(F1.25
F1.25
g10
tp424
tp425
(dp426
g34
(lp427
F0.05
aI3
asg20
(lp428
F0.05
aI3
ass(g339
(F1.25
F1.25
g1
tp429
tp430
(dp431
g18
(lp432
F0.99
aI1
asg34
(lp433
F0.05
aI3
asg20
(lp434
F0.05
aI3
ass((F2.25
F1.25
g10
tp435
(F2.25
F1.25
g12
tp436
tp437
(dp438
g18
(lp439
F0.005
aI1
asg20
(lp440
F0.9
aI3
ass((F1.75
F1.25
g1
tp441
(F1.75
F1.25
g12
tp442
tp443
(dp444
g34
(lp445
F0.05
aI3
asg20
(lp446
F0.05
aI3
ass(g83
(F1.25
F1.25
g16
tp447
tp448
(dp449
g18
(lp450
F0.005
aI1
asg20
(lp451
F0.9
aI3
ass((F1.25
F0.75
g1
tp452
(F1.75
F0.75
g1
tp453
tp454
(dp455
g48
(lp456
F0.7
aI4
ass((F0.75
F0.25
g16
tp457
(F0.75
F0.25
g16
tp458
tp459
(dp460
g18
(lp461
F0.99
aI1
asg34
(lp462
F0.05
aI3
asg20
(lp463
F0.05
aI3
ass(g198
(F1.75
F0.75
g12
tp464
tp465
(dp466
g48
(lp467
F0.225
aI4
ass(g146
(F0.25
F1.25
g1
tp468
tp469
(dp470
g18
(lp471
F0.005
aI1
asg34
(lp472
F0.9
aI3
ass((F0.75
F0.25
g10
tp473
(F0.25
F0.75
g10
tp474
tp475
(dp476
g8
(lp477
F0.1
aI2
ass(g391
(F1.25
F0.75
g1
tp478
tp479
(dp480
g18
(lp481
F0.005
aI1
asg20
(lp482
F0.9
aI3
ass(g203
(F0.25
F0.75
g10
tp483
tp484
(dp485
g18
(lp486
F0.005
aI1
asg20
(lp487
F0.9
aI3
ass(g2
(F1.75
F0.75
g1
tp488
tp489
(dp490
g8
(lp491
F0.8
aI2
ass(g435
(F2.25
F1.25
g10
tp492
tp493
(dp494
g18
(lp495
F0.99
aI1
asg34
(lp496
F0.05
aI3
asg20
(lp497
F0.05
aI3
ass((F1.75
F0.75
g12
tp498
(F1.25
F0.25
g12
tp499
tp500
(dp501
g48
(lp502
F0.15
aI4
ass(g473
(F0.75
F0.25
g1
tp503
tp504
(dp505
g18
(lp506
F0.005
aI1
asg34
(lp507
F0.9
aI3
ass((F2.25
F0.25
g10
tp508
(F2.25
F0.75
g10
tp509
tp510
(dp511
g8
(lp512
F0.8500000000000001
aI2
ass(g146
(F0.25
F1.25
g16
tp513
tp514
(dp515
g34
(lp516
F0.05
aI3
asg20
(lp517
F0.05
aI3
ass(g134
(F1.75
F0.75
g12
tp518
tp519
(dp520
g18
(lp521
F0.005
aI1
asg34
(lp522
F0.9
aI3
ass(g95
(F0.75
F0.25
g10
tp523
tp524
(dp525
g18
(lp526
F0.005
aI1
asg20
(lp527
F0.9
aI3
ass(g498
(F2.25
F0.75
g12
tp528
tp529
(dp530
g8
(lp531
F0.8
aI2
ass(g364
(F2.25
F0.75
g10
tp532
tp533
(dp534
g48
(lp535
F0.15
aI4
ass(g70
(F0.75
F0.75
g12
tp536
tp537
(dp538
g8
(lp539
F0.15
aI2
ass((F1.25
F0.75
g10
tp540
(F1.25
F0.75
g10
tp541
tp542
(dp543
g18
(lp544
F0.99
aI1
asg34
(lp545
F0.05
aI3
asg20
(lp546
F0.05
aI3
ass(g441
(F1.25
F0.75
g1
tp547
tp548
(dp549
g8
(lp550
F0.15
aI2
ass(g364
(F1.75
F1.25
g12
tp551
tp552
(dp553
g18
(lp554
F0.005
aI1
asg20
(lp555
F0.9
aI3
ass(g370
(F1.25
F0.75
g10
tp556
tp557
(dp558
g48
(lp559
F0.15
aI4
ass(g178
(F0.25
F1.25
g10
tp560
tp561
(dp562
g8
(lp563
F0.8500000000000001
aI2
ass(g134
(F1.75
F0.75
g1
tp564
tp565
(dp566
g18
(lp567
F0.005
aI1
asg20
(lp568
F0.9
aI3
ass(g339
(F1.25
F1.25
g10
tp569
tp570
(dp571
g18
(lp572
F0.005
aI1
asg20
(lp573
F0.9
aI3
ass(g50
(F0.75
F1.25
g16
tp574
tp575
(dp576
g18
(lp577
F0.005
aI1
asg20
(lp578
F0.9
aI3
ass(g270
(F2.25
F0.75
g16
tp579
tp580
(dp581
g18
(lp582
F0.99
aI1
asg34
(lp583
F0.05
aI3
asg20
(lp584
F0.05
aI3
ass(g245
(F1.25
F0.25
g12
tp585
tp586
(dp587
g8
(lp588
F0.1
aI2
ass(g333
(F2.25
F1.25
g16
tp589
tp590
(dp591
g18
(lp592
F0.005
aI1
asg34
(lp593
F0.9
aI3
ass((F0.75
F1.25
g1
tp594
(F0.25
F1.25
g1
tp595
tp596
(dp597
g8
(lp598
F0.8500000000000001
aI2
ass(g22
(F0.75
F1.25
g12
tp599
tp600
(dp601
g18
(lp602
F0.005
aI1
asg34
(lp603
F0.9
aI3
ass(g88
(F1.25
F1.25
g16
tp604
tp605
(dp606
g34
(lp607
F0.05
aI3
asg20
(lp608
F0.05
aI3
ass((F1.75
F0.25
g12
tp609
(F1.75
F0.25
g1
tp610
tp611
(dp612
g34
(lp613
F0.05
aI3
asg20
(lp614
F0.05
aI3
ass(g83
(F1.25
F1.25
g10
tp615
tp616
(dp617
g18
(lp618
F0.005
aI1
asg34
(lp619
F0.9
aI3
ass(g134
(F1.25
F0.25
g16
tp620
tp621
(dp622
g8
(lp623
F0.1
aI2
ass(g127
(F1.25
F0.75
g16
tp624
tp625
(dp626
g18
(lp627
F0.005
aI1
asg20
(lp628
F0.9
aI3
ass(g184
(F1.75
F0.75
g10
tp629
tp630
(dp631
g8
(lp632
F0.8
aI2
ass((F2.25
F0.75
g10
tp633
(F2.25
F0.25
g10
tp634
tp635
(dp636
g48
(lp637
F0.7749999999999999
aI4
ass(g95
(F0.75
F0.25
g16
tp638
tp639
(dp640
g18
(lp641
F0.005
aI1
asg34
(lp642
F0.9
aI3
ass(g391
(F1.25
F0.75
g16
tp643
tp644
(dp645
g18
(lp646
F0.99
aI1
asg34
(lp647
F0.05
aI3
asg20
(lp648
F0.05
aI3
ass(g452
(F1.25
F0.75
g10
tp649
tp650
(dp651
g18
(lp652
F0.005
aI1
asg20
(lp653
F0.9
aI3
ass(g391
(F1.25
F1.25
g16
tp654
tp655
(dp656
g48
(lp657
F0.7
aI4
ass(g55
(F0.75
F1.25
g16
tp658
tp659
(dp660
g48
(lp661
F0.7
aI4
ass(g290
(F0.75
F1.25
g16
tp662
tp663
(dp664
g48
(lp665
F0.225
aI4
ass(g245
(F0.75
F0.75
g12
tp666
tp667
(dp668
g18
(lp669
F0.99
aI1
asg34
(lp670
F0.05
aI3
asg20
(lp671
F0.05
aI3
ass(g633
(F1.75
F0.25
g10
tp672
tp673
(dp674
g48
(lp675
F0.225
aI4
ass(g36
(F1.25
F0.75
g12
tp676
tp677
(dp678
g8
(lp679
F0.15
aI2
ass(g77
(F1.75
F0.75
g1
tp680
tp681
(dp682
g48
(lp683
F0.225
aI4
ass(g168
(F1.75
F0.75
g10
tp684
tp685
(dp686
g18
(lp687
F0.005
aI1
asg20
(lp688
F0.9
aI3
ass(g310
(F1.25
F0.75
g1
tp689
tp690
(dp691
g48
(lp692
F0.7
aI4
ass(g321
(F0.75
F1.25
g12
tp693
tp694
(dp695
g8
(lp696
F0.1
aI2
ass((F0.25
F1.25
g16
tp697
(F0.25
F1.25
g10
tp698
tp699
(dp700
g34
(lp701
F0.05
aI3
asg20
(lp702
F0.05
aI3
ass(g697
(F0.25
F0.75
g16
tp703
tp704
(dp705
g8
(lp706
F0.8500000000000001
aI2
ass(g245
(F0.25
F0.75
g12
tp707
tp708
(dp709
g48
(lp710
F0.7
aI4
ass(g633
(F2.25
F1.25
g10
tp711
tp712
(dp713
g8
(lp714
F0.8500000000000001
aI2
ass((F0.25
F0.25
g10
tp715
(F0.25
F0.25
g1
tp716
tp717
(dp718
g18
(lp719
F0.005
aI1
asg34
(lp720
F0.9
aI3
ass(g540
(F1.75
F1.25
g10
tp721
tp722
(dp723
g8
(lp724
F0.1
aI2
ass(g168
(F1.25
F0.25
g1
tp725
tp726
(dp727
g8
(lp728
F0.1
aI2
ass(g333
(F2.25
F1.25
g1
tp729
tp730
(dp731
g18
(lp732
F0.99
aI1
asg34
(lp733
F0.05
aI3
asg20
(lp734
F0.05
aI3
ass((F2.25
F1.25
g16
tp735
(F1.75
F0.75
g16
tp736
tp737
(dp738
g8
(lp739
F0.15
aI2
ass((F0.25
F1.25
g12
tp740
(F0.25
F1.25
g12
tp741
tp742
(dp743
g18
(lp744
F0.99
aI1
asg34
(lp745
F0.05
aI3
asg20
(lp746
F0.05
aI3
ass(g290
(F0.25
F0.75
g16
tp747
tp748
(dp749
g18
(lp750
F0.99
aI1
asg34
(lp751
F0.05
aI3
asg20
(lp752
F0.05
aI3
ass(g364
(F1.25
F0.75
g10
tp753
tp754
(dp755
g48
(lp756
F0.15
aI4
ass(g250
(F1.25
F0.25
g10
tp757
tp758
(dp759
g48
(lp760
F0.15
aI4
ass(g315
(F1.25
F0.25
g10
tp761
tp762
(dp763
g18
(lp764
F0.99
aI1
asg34
(lp765
F0.05
aI3
asg20
(lp766
F0.05
aI3
ass(g42
(F0.25
F1.25
g10
tp767
tp768
(dp769
g18
(lp770
F0.005
aI1
asg20
(lp771
F0.9
aI3
ass(g255
(F1.25
F0.25
g10
tp772
tp773
(dp774
g18
(lp775
F0.005
aI1
asg34
(lp776
F0.9
aI3
ass(g441
(F1.75
F1.25
g16
tp777
tp778
(dp779
g18
(lp780
F0.005
aI1
asg34
(lp781
F0.9
aI3
ass(g396
(F1.75
F0.25
g12
tp782
tp783
(dp784
g48
(lp785
F0.15
aI4
ass(g339
(F1.75
F0.75
g1
tp786
tp787
(dp788
g48
(lp789
F0.225
aI4
ass(g441
(F2.25
F0.75
g1
tp790
tp791
(dp792
g48
(lp793
F0.225
aI4
ass(g100
(F1.25
F0.75
g12
tp794
tp795
(dp796
g48
(lp797
F0.225
aI4
ass(g391
(F0.75
F1.25
g16
tp798
tp799
(dp800
g48
(lp801
F0.15
aI4
ass(g697
(F0.75
F0.75
g16
tp802
tp803
(dp804
g8
(lp805
F0.15
aI2
ass(g457
(F0.75
F0.25
g12
tp806
tp807
(dp808
g18
(lp809
F0.005
aI1
asg34
(lp810
F0.9
aI3
ass((F0.25
F0.25
g16
tp811
(F0.25
F0.25
g10
tp812
tp813
(dp814
g34
(lp815
F0.05
aI3
asg20
(lp816
F0.05
aI3
ass(g540
(F1.25
F0.75
g1
tp817
tp818
(dp819
g18
(lp820
F0.005
aI1
asg34
(lp821
F0.9
aI3
ass(g339
(F0.75
F0.75
g1
tp822
tp823
(dp824
g8
(lp825
F0.15
aI2
ass(g594
(F1.25
F1.25
g1
tp826
tp827
(dp828
g48
(lp829
F0.7749999999999999
aI4
ass(g42
(F0.25
F1.25
g12
tp830
tp831
(dp832
g34
(lp833
F0.05
aI3
asg20
(lp834
F0.05
aI3
ass(g270
(F1.75
F0.25
g16
tp835
tp836
(dp837
g8
(lp838
F0.15
aI2
ass(g55
(F0.75
F0.75
g10
tp839
tp840
(dp841
g34
(lp842
F0.05
aI3
asg20
(lp843
F0.05
aI3
ass(g321
(F0.75
F0.25
g12
tp844
tp845
(dp846
g8
(lp847
F0.1
aI2
ass(g441
(F1.75
F1.25
g10
tp848
tp849
(dp850
g18
(lp851
F0.005
aI1
asg20
(lp852
F0.9
aI3
ass(g127
(F0.75
F0.75
g12
tp853
tp854
(dp855
g48
(lp856
F0.7
aI4
ass(g168
(F2.25
F0.25
g1
tp857
tp858
(dp859
g48
(lp860
F0.15
aI4
ass(g55
(F0.25
F0.25
g16
tp861
tp862
(dp863
g8
(lp864
F0.1
aI2
ass(g178
(F0.25
F0.75
g12
tp865
tp866
(dp867
g18
(lp868
F0.005
aI1
asg20
(lp869
F0.9
aI3
ass((F1.75
F0.25
g16
tp870
(F1.75
F0.25
g1
tp871
tp872
(dp873
g18
(lp874
F0.005
aI1
asg20
(lp875
F0.9
aI3
ass(g310
(F0.75
F0.75
g10
tp876
tp877
(dp878
g18
(lp879
F0.005
aI1
asg20
(lp880
F0.9
aI3
ass((F2.25
F1.25
g12
tp881
(F2.25
F1.25
g16
tp882
tp883
(dp884
g18
(lp885
F0.005
aI1
asg20
(lp886
F0.9
aI3
ass(g55
(F0.75
F0.75
g16
tp887
tp888
(dp889
g18
(lp890
F0.99
aI1
asg34
(lp891
F0.05
aI3
asg20
(lp892
F0.05
aI3
ass(g36
(F0.75
F0.25
g12
tp893
tp894
(dp895
g18
(lp896
F0.99
aI1
asg34
(lp897
F0.05
aI3
asg20
(lp898
F0.05
aI3
ass(g609
(F1.25
F0.25
g12
tp899
tp900
(dp901
g48
(lp902
F0.7749999999999999
aI4
ass(g290
(F0.25
F0.75
g1
tp903
tp904
(dp905
g18
(lp906
F0.005
aI1
asg20
(lp907
F0.9
aI3
ass(g333
(F1.75
F1.25
g1
tp908
tp909
(dp910
g8
(lp911
F0.8500000000000001
aI2
ass(g290
(F0.25
F0.25
g16
tp912
tp913
(dp914
g8
(lp915
F0.8500000000000001
aI2
ass(g321
(F0.75
F0.75
g12
tp916
tp917
(dp918
g8
(lp919
F0.8
aI2
ass(g452
(F0.75
F0.75
g1
tp920
tp921
(dp922
g8
(lp923
F0.8
aI2
ass(g225
(F1.25
F1.25
g12
tp924
tp925
(dp926
g18
(lp927
F0.005
aI1
asg34
(lp928
F0.9
aI3
ass(g310
(F0.75
F0.75
g1
tp929
tp930
(dp931
g18
(lp932
F0.99
aI1
asg34
(lp933
F0.05
aI3
asg20
(lp934
F0.05
aI3
ass(g296
(F2.25
F0.75
g16
tp935
tp936
(dp937
g48
(lp938
F0.7749999999999999
aI4
ass(g735
(F2.25
F0.75
g16
tp939
tp940
(dp941
g8
(lp942
F0.8500000000000001
aI2
ass(g540
(F1.25
F0.75
g16
tp943
tp944
(dp945
g34
(lp946
F0.05
aI3
asg20
(lp947
F0.05
aI3
ass(g198
(F2.25
F0.25
g1
tp948
tp949
(dp950
g34
(lp951
F0.05
aI3
asg20
(lp952
F0.05
aI3
ass(g370
(F0.75
F0.75
g10
tp953
tp954
(dp955
g48
(lp956
F0.7
aI4
ass(g270
(F1.75
F1.25
g16
tp957
tp958
(dp959
g48
(lp960
F0.225
aI4
ass(g250
(F0.75
F0.75
g10
tp961
tp962
(dp963
g18
(lp964
F0.99
aI1
asg34
(lp965
F0.05
aI3
asg20
(lp966
F0.05
aI3
ass(g28
(F1.75
F0.75
g1
tp967
tp968
(dp969
g8
(lp970
F0.15
aI2
ass(g106
(F1.75
F1.25
g12
tp971
tp972
(dp973
g18
(lp974
F0.005
aI1
asg34
(lp975
F0.9
aI3
ass(g609
(F1.25
F0.75
g12
tp976
tp977
(dp978
g48
(lp979
F0.225
aI4
ass(g633
(F2.25
F0.75
g12
tp980
tp981
(dp982
g18
(lp983
F0.005
aI1
asg20
(lp984
F0.9
aI3
ass(g203
(F0.25
F0.75
g12
tp985
tp986
(dp987
g34
(lp988
F0.05
aI3
asg20
(lp989
F0.05
aI3
ass(g2
(F2.25
F0.75
g12
tp990
tp991
(dp992
g34
(lp993
F0.05
aI3
asg20
(lp994
F0.05
aI3
ass(g42
(F0.25
F1.25
g16
tp995
tp996
(dp997
g18
(lp998
F0.005
aI1
asg34
(lp999
F0.9
aI3
ass(g22
(F0.75
F1.25
g16
tp1000
tp1001
(dp1002
g18
(lp1003
F0.99
aI1
asg34
(lp1004
F0.05
aI3
asg20
(lp1005
F0.05
aI3
ass(g162
(F2.25
F0.25
g1
tp1006
tp1007
(dp1008
g48
(lp1009
F0.7749999999999999
aI4
ass(g370
(F0.25
F0.75
g10
tp1010
tp1011
(dp1012
g48
(lp1013
F0.15
aI4
ass(g315
(F1.75
F0.75
g10
tp1014
tp1015
(dp1016
g8
(lp1017
F0.1
aI2
ass(g162
(F1.25
F0.25
g1
tp1018
tp1019
(dp1020
g8
(lp1021
F0.8500000000000001
aI2
ass(g250
(F0.75
F1.25
g10
tp1022
tp1023
(dp1024
g8
(lp1025
F0.8
aI2
ass(g255
(F1.75
F0.25
g12
tp1026
tp1027
(dp1028
g8
(lp1029
F0.8500000000000001
aI2
ass(g396
(F2.25
F0.75
g10
tp1030
tp1031
(dp1032
g18
(lp1033
F0.005
aI1
asg34
(lp1034
F0.9
aI3
ass(g881
(F1.75
F1.25
g12
tp1035
tp1036
(dp1037
g48
(lp1038
F0.7749999999999999
aI4
ass(g250
(F0.75
F0.25
g10
tp1039
tp1040
(dp1041
g48
(lp1042
F0.7
aI4
ass(g245
(F0.25
F1.25
g12
tp1043
tp1044
(dp1045
g48
(lp1046
F0.15
aI4
ass(g333
(F1.75
F0.75
g1
tp1047
tp1048
(dp1049
g8
(lp1050
F0.15
aI2
ass(g391
(F1.75
F0.25
g16
tp1051
tp1052
(dp1053
g8
(lp1054
F0.1
aI2
ass(g245
(F0.25
F0.25
g12
tp1055
tp1056
(dp1057
g48
(lp1058
F0.15
aI4
ass(g250
(F1.25
F1.25
g10
tp1059
tp1060
(dp1061
g8
(lp1062
F0.1
aI2
ass(g83
(F0.75
F1.25
g12
tp1063
tp1064
(dp1065
g48
(lp1066
F0.7749999999999999
aI4
ass(g452
(F1.25
F0.75
g12
tp1067
tp1068
(dp1069
g34
(lp1070
F0.05
aI3
asg20
(lp1071
F0.05
aI3
ass(g255
(F1.75
F0.75
g12
tp1072
tp1073
(dp1074
g8
(lp1075
F0.15
aI2
ass(g370
(F0.75
F1.25
g16
tp1076
tp1077
(dp1078
g34
(lp1079
F0.05
aI3
asg20
(lp1080
F0.05
aI3
ass(g11
(F1.75
F0.75
g10
tp1081
tp1082
(dp1083
g18
(lp1084
F0.99
aI1
asg34
(lp1085
F0.05
aI3
asg20
(lp1086
F0.05
aI3
ass(g127
(F0.75
F0.25
g12
tp1087
tp1088
(dp1089
g48
(lp1090
F0.15
aI4
ass(g435
(F2.25
F0.75
g10
tp1091
tp1092
(dp1093
g48
(lp1094
F0.7749999999999999
aI4
ass(g162
(F1.75
F0.25
g1
tp1095
tp1096
(dp1097
g18
(lp1098
F0.99
aI1
asg34
(lp1099
F0.05
aI3
asg20
(lp1100
F0.05
aI3
ass(g715
(F0.25
F0.25
g12
tp1101
tp1102
(dp1103
g18
(lp1104
F0.005
aI1
asg20
(lp1105
F0.9
aI3
ass(g370
(F0.75
F1.25
g12
tp1106
tp1107
(dp1108
g18
(lp1109
F0.005
aI1
asg20
(lp1110
F0.9
aI3
ass(g255
(F0.75
F0.25
g12
tp1111
tp1112
(dp1113
g48
(lp1114
F0.7749999999999999
aI4
ass(g290
(F0.75
F0.25
g16
tp1115
tp1116
(dp1117
g8
(lp1118
F0.15
aI2
ass(g498
(F2.25
F0.25
g12
tp1119
tp1120
(dp1121
g8
(lp1122
F0.1
aI2
ass(g697
(F0.25
F1.25
g16
tp1123
tp1124
(dp1125
g18
(lp1126
F0.99
aI1
asg34
(lp1127
F0.05
aI3
asg20
(lp1128
F0.05
aI3
ass(g203
(F0.25
F0.75
g16
tp1129
tp1130
(dp1131
g18
(lp1132
F0.005
aI1
asg34
(lp1133
F0.9
aI3
ass(g473
(F0.75
F0.75
g10
tp1134
tp1135
(dp1136
g8
(lp1137
F0.8
aI2
ass(g540
(F1.25
F0.75
g12
tp1138
tp1139
(dp1140
g18
(lp1141
F0.005
aI1
asg20
(lp1142
F0.9
aI3
ass(g811
(F0.25
F0.75
g16
tp1143
tp1144
(dp1145
g48
(lp1146
F0.7749999999999999
aI4
ass(g735
(F2.25
F1.25
g12
tp1147
tp1148
(dp1149
g18
(lp1150
F0.005
aI1
asg34
(lp1151
F0.9
aI3
ass(g245
(F1.25
F0.75
g12
tp1152
tp1153
(dp1154
g8
(lp1155
F0.8
aI2
ass(g106
(F1.75
F1.25
g1
tp1156
tp1157
(dp1158
g18
(lp1159
F0.005
aI1
asg20
(lp1160
F0.9
aI3
ass(g127
(F1.75
F0.75
g12
tp1161
tp1162
(dp1163
g8
(lp1164
F0.8
aI2
ass(g184
(F1.25
F0.75
g10
tp1165
tp1166
(dp1167
g8
(lp1168
F0.1
aI2
ass(g255
(F0.75
F0.75
g12
tp1169
tp1170
(dp1171
g48
(lp1172
F0.225
aI4
ass(g396
(F1.75
F0.75
g12
tp1173
tp1174
(dp1175
g48
(lp1176
F0.7
aI4
ass(g134
(F1.25
F1.25
g16
tp1177
tp1178
(dp1179
g48
(lp1180
F0.15
aI4
ass(g697
(F0.25
F1.25
g12
tp1181
tp1182
(dp1183
g18
(lp1184
F0.005
aI1
asg34
(lp1185
F0.9
aI3
ass(g106
(F2.25
F0.75
g16
tp1186
tp1187
(dp1188
g8
(lp1189
F0.1
aI2
ass(g50
(F0.25
F0.75
g12
tp1190
tp1191
(dp1192
g48
(lp1193
F0.225
aI4
ass(g540
(F0.75
F1.25
g10
tp1194
tp1195
(dp1196
g8
(lp1197
F0.1
aI2
ass(g100
(F1.25
F1.25
g12
tp1198
tp1199
(dp1200
g48
(lp1201
F0.7749999999999999
aI4
ass(g77
(F1.25
F0.25
g10
tp1202
tp1203
(dp1204
g18
(lp1205
F0.005
aI1
asg20
(lp1206
F0.9
aI3
ass(g168
(F1.25
F1.25
g1
tp1207
tp1208
(dp1209
g8
(lp1210
F0.1
aI2
ass(g452
(F1.75
F1.25
g1
tp1211
tp1212
(dp1213
g48
(lp1214
F0.15
aI4
ass(g146
(F0.25
F0.75
g10
tp1215
tp1216
(dp1217
g48
(lp1218
F0.7749999999999999
aI4
ass(g11
(F1.75
F1.25
g10
tp1219
tp1220
(dp1221
g8
(lp1222
F0.8
aI2
ass(g151
(F1.25
F0.25
g1
tp1223
tp1224
(dp1225
g18
(lp1226
F0.005
aI1
asg20
(lp1227
F0.9
aI3
ass(g452
(F0.75
F1.25
g1
tp1228
tp1229
(dp1230
g8
(lp1231
F0.1
aI2
ass(g77
(F1.25
F0.25
g12
tp1232
tp1233
(dp1234
g34
(lp1235
F0.05
aI3
asg20
(lp1236
F0.05
aI3
ass(g151
(F1.75
F0.75
g16
tp1237
tp1238
(dp1239
g48
(lp1240
F0.15
aI4
ass(g391
(F1.25
F0.75
g12
tp1241
tp1242
(dp1243
g18
(lp1244
F0.005
aI1
asg34
(lp1245
F0.9
aI3
ass(g296
(F1.75
F0.75
g16
tp1246
tp1247
(dp1248
g48
(lp1249
F0.225
aI4
ass(g594
(F0.75
F1.25
g12
tp1250
tp1251
(dp1252
g34
(lp1253
F0.05
aI3
asg20
(lp1254
F0.05
aI3
ass(g64
(F0.25
F0.25
g1
tp1255
tp1256
(dp1257
g18
(lp1258
F0.99
aI1
asg34
(lp1259
F0.05
aI3
asg20
(lp1260
F0.05
aI3
ass(g310
(F0.25
F0.75
g1
tp1261
tp1262
(dp1263
g8
(lp1264
F0.8
aI2
ass(g473
(F1.25
F0.75
g10
tp1265
tp1266
(dp1267
g8
(lp1268
F0.1
aI2
ass(g881
(F2.25
F1.25
g1
tp1269
tp1270
(dp1271
g34
(lp1272
F0.05
aI3
asg20
(lp1273
F0.05
aI3
ass(g391
(F1.25
F0.25
g16
tp1274
tp1275
(dp1276
g8
(lp1277
F0.8
aI2
ass(g321
(F0.25
F0.75
g1
tp1278
tp1279
(dp1280
g34
(lp1281
F0.05
aI3
asg20
(lp1282
F0.05
aI3
ass(g127
(F1.75
F0.25
g12
tp1283
tp1284
(dp1285
g8
(lp1286
F0.1
aI2
ass(g715
(F0.25
F0.75
g10
tp1287
tp1288
(dp1289
g8
(lp1290
F0.8500000000000001
aI2
ass(g64
(F0.75
F0.75
g1
tp1291
tp1292
(dp1293
g48
(lp1294
F0.225
aI4
ass(g151
(F1.25
F0.25
g12
tp1295
tp1296
(dp1297
g18
(lp1298
F0.005
aI1
asg34
(lp1299
F0.9
aI3
ass(g296
(F2.25
F0.25
g16
tp1300
tp1301
(dp1302
g18
(lp1303
F0.99
aI1
asg34
(lp1304
F0.05
aI3
asg20
(lp1305
F0.05
aI3
ass(g77
(F1.25
F0.25
g1
tp1306
tp1307
(dp1308
g18
(lp1309
F0.99
aI1
asg34
(lp1310
F0.05
aI3
asg20
(lp1311
F0.05
aI3
ass(g452
(F0.75
F0.25
g1
tp1312
tp1313
(dp1314
g8
(lp1315
F0.1
aI2
ass(g127
(F1.25
F0.75
g10
tp1316
tp1317
(dp1318
g18
(lp1319
F0.005
aI1
asg34
(lp1320
F0.9
aI3
ass(g178
(F0.25
F0.25
g10
tp1321
tp1322
(dp1323
g48
(lp1324
F0.7749999999999999
aI4
ass(g473
(F0.75
F0.25
g10
tp1325
tp1326
(dp1327
g18
(lp1328
F0.99
aI1
asg34
(lp1329
F0.05
aI3
asg20
(lp1330
F0.05
aI3
ass(g225
(F1.25
F0.75
g16
tp1331
tp1332
(dp1333
g8
(lp1334
F0.8
aI2
ass(g50
(F0.75
F1.25
g1
tp1335
tp1336
(dp1337
g34
(lp1338
F0.05
aI3
asg20
(lp1339
F0.05
aI3
ass(g315
(F0.75
F0.75
g10
tp1340
tp1341
(dp1342
g8
(lp1343
F0.1
aI2
ass(g127
(F0.75
F1.25
g12
tp1344
tp1345
(dp1346
g48
(lp1347
F0.15
aI4
ass(g162
(F1.75
F0.25
g12
tp1348
tp1349
(dp1350
g34
(lp1351
F0.05
aI3
asg20
(lp1352
F0.05
aI3
ass(g435
(F2.25
F1.25
g1
tp1353
tp1354
(dp1355
g18
(lp1356
F0.005
aI1
asg34
(lp1357
F0.9
aI3
ass(g95
(F0.25
F0.75
g1
tp1358
tp1359
(dp1360
g8
(lp1361
F0.15
aI2
ass(g151
(F1.25
F0.75
g16
tp1362
tp1363
(dp1364
g48
(lp1365
F0.7
aI4
ass(g697
(F0.25
F1.25
g1
tp1366
tp1367
(dp1368
g18
(lp1369
F0.005
aI1
asg20
(lp1370
F0.9
aI3
ass(g95
(F1.25
F0.75
g1
tp1371
tp1372
(dp1373
g48
(lp1374
F0.225
aI4
ass(g881
(F2.25
F1.25
g12
tp1375
tp1376
(dp1377
g18
(lp1378
F0.99
aI1
asg34
(lp1379
F0.05
aI3
asg20
(lp1380
F0.05
aI3
ass(g95
(F0.75
F0.25
g12
tp1381
tp1382
(dp1383
g34
(lp1384
F0.05
aI3
asg20
(lp1385
F0.05
aI3
ass(g22
(F0.75
F0.75
g16
tp1386
tp1387
(dp1388
g8
(lp1389
F0.8
aI2
ass(g594
(F0.75
F1.25
g16
tp1390
tp1391
(dp1392
g18
(lp1393
F0.005
aI1
asg34
(lp1394
F0.9
aI3
ass(g100
(F1.75
F1.25
g10
tp1395
tp1396
(dp1397
g18
(lp1398
F0.005
aI1
asg34
(lp1399
F0.9
aI3
ass(g50
(F0.25
F1.25
g12
tp1400
tp1401
(dp1402
g48
(lp1403
F0.7749999999999999
aI4
ass(g162
(F1.75
F0.25
g10
tp1404
tp1405
(dp1406
g18
(lp1407
F0.005
aI1
asg20
(lp1408
F0.9
aI3
ass(g245
(F0.75
F0.75
g1
tp1409
tp1410
(dp1411
g34
(lp1412
F0.05
aI3
asg20
(lp1413
F0.05
aI3
ass(g203
(F0.75
F1.25
g1
tp1414
tp1415
(dp1416
g48
(lp1417
F0.15
aI4
ass(g55
(F0.75
F0.75
g12
tp1418
tp1419
(dp1420
g18
(lp1421
F0.005
aI1
asg34
(lp1422
F0.9
aI3
ass(g162
(F2.25
F0.75
g1
tp1423
tp1424
(dp1425
g48
(lp1426
F0.225
aI4
ass(g22
(F0.25
F0.75
g16
tp1427
tp1428
(dp1429
g8
(lp1430
F0.1
aI2
ass(g609
(F2.25
F0.75
g12
tp1431
tp1432
(dp1433
g8
(lp1434
F0.15
aI2
ass(g11
(F2.25
F0.25
g10
tp1435
tp1436
(dp1437
g48
(lp1438
F0.15
aI4
ass(g715
(F0.25
F0.25
g10
tp1439
tp1440
(dp1441
g18
(lp1442
F0.99
aI1
asg34
(lp1443
F0.05
aI3
asg20
(lp1444
F0.05
aI3
ass(g2
(F2.25
F0.75
g16
tp1445
tp1446
(dp1447
g18
(lp1448
F0.005
aI1
asg34
(lp1449
F0.9
aI3
ass(g811
(F0.25
F0.25
g1
tp1450
tp1451
(dp1452
g18
(lp1453
F0.005
aI1
asg20
(lp1454
F0.9
aI3
ass(g296
(F2.25
F0.25
g1
tp1455
tp1456
(dp1457
g18
(lp1458
F0.005
aI1
asg20
(lp1459
F0.9
aI3
ass(g11
(F1.75
F0.75
g1
tp1460
tp1461
(dp1462
g18
(lp1463
F0.005
aI1
asg34
(lp1464
F0.9
aI3
ass(g321
(F0.25
F0.75
g12
tp1465
tp1466
(dp1467
g18
(lp1468
F0.99
aI1
asg34
(lp1469
F0.05
aI3
asg20
(lp1470
F0.05
aI3
ass(g11
(F1.25
F1.25
g10
tp1471
tp1472
(dp1473
g8
(lp1474
F0.1
aI2
ass(g333
(F2.25
F1.25
g10
tp1475
tp1476
(dp1477
g18
(lp1478
F0.005
aI1
asg20
(lp1479
F0.9
aI3
ass(g168
(F1.75
F0.75
g1
tp1480
tp1481
(dp1482
g18
(lp1483
F0.99
aI1
asg34
(lp1484
F0.05
aI3
asg20
(lp1485
F0.05
aI3
ass(g594
(F1.25
F0.75
g1
tp1486
tp1487
(dp1488
g48
(lp1489
F0.225
aI4
ass(g184
(F1.75
F0.25
g12
tp1490
tp1491
(dp1492
g18
(lp1493
F0.005
aI1
asg20
(lp1494
F0.9
aI3
ass(g55
(F0.75
F0.75
g1
tp1495
tp1496
(dp1497
g18
(lp1498
F0.005
aI1
asg20
(lp1499
F0.9
aI3
ass(g310
(F0.25
F1.25
g1
tp1500
tp1501
(dp1502
g8
(lp1503
F0.1
aI2
ass(g609
(F1.75
F0.25
g16
tp1504
tp1505
(dp1506
g18
(lp1507
F0.005
aI1
asg20
(lp1508
F0.9
aI3
ass(g811
(F0.75
F0.75
g16
tp1509
tp1510
(dp1511
g48
(lp1512
F0.225
aI4
ass(g198
(F2.25
F0.25
g12
tp1513
tp1514
(dp1515
g18
(lp1516
F0.99
aI1
asg34
(lp1517
F0.05
aI3
asg20
(lp1518
F0.05
aI3
ass(g250
(F0.25
F1.25
g10
tp1519
tp1520
(dp1521
g8
(lp1522
F0.1
aI2
ass(g811
(F0.25
F0.25
g12
tp1523
tp1524
(dp1525
g18
(lp1526
F0.005
aI1
asg34
(lp1527
F0.9
aI3
ass(g83
(F1.25
F1.25
g12
tp1528
tp1529
(dp1530
g18
(lp1531
F0.99
aI1
asg34
(lp1532
F0.05
aI3
asg20
(lp1533
F0.05
aI3
ass(g315
(F1.25
F0.75
g10
tp1534
tp1535
(dp1536
g8
(lp1537
F0.8
aI2
ass(g396
(F2.25
F0.75
g1
tp1538
tp1539
(dp1540
g34
(lp1541
F0.05
aI3
asg20
(lp1542
F0.05
aI3
ass(g162
(F1.25
F0.75
g1
tp1543
tp1544
(dp1545
g8
(lp1546
F0.15
aI2
ass(g457
(F0.75
F0.25
g10
tp1547
tp1548
(dp1549
g34
(lp1550
F0.05
aI3
asg20
(lp1551
F0.05
aI3
ass(g740
(F0.25
F1.25
g10
tp1552
tp1553
(dp1554
g18
(lp1555
F0.005
aI1
asg34
(lp1556
F0.9
aI3
ass(g198
(F2.25
F0.25
g16
tp1557
tp1558
(dp1559
g18
(lp1560
F0.005
aI1
asg20
(lp1561
F0.9
aI3
ass(g339
(F1.25
F1.25
g12
tp1562
tp1563
(dp1564
g34
(lp1565
F0.05
aI3
asg20
(lp1566
F0.05
aI3
ass(g498
(F1.75
F0.75
g1
tp1567
tp1568
(dp1569
g34
(lp1570
F0.05
aI3
asg20
(lp1571
F0.05
aI3
ass(g168
(F2.25
F1.25
g1
tp1572
tp1573
(dp1574
g48
(lp1575
F0.15
aI4
ass(g540
(F1.75
F0.25
g10
tp1576
tp1577
(dp1578
g48
(lp1579
F0.15
aI4
ass(g508
(F1.75
F0.75
g10
tp1580
tp1581
(dp1582
g8
(lp1583
F0.15
aI2
ass(g290
(F0.25
F0.75
g10
tp1584
tp1585
(dp1586
g34
(lp1587
F0.05
aI3
asg20
(lp1588
F0.05
aI3
ass(g396
(F2.25
F0.75
g16
tp1589
tp1590
(dp1591
g18
(lp1592
F0.005
aI1
asg20
(lp1593
F0.9
aI3
ass(g498
(F1.75
F0.75
g10
tp1594
tp1595
(dp1596
g18
(lp1597
F0.005
aI1
asg34
(lp1598
F0.9
aI3
ass(g364
(F1.75
F1.25
g16
tp1599
tp1600
(dp1601
g34
(lp1602
F0.05
aI3
asg20
(lp1603
F0.05
aI3
ass(g250
(F0.75
F0.75
g1
tp1604
tp1605
(dp1606
g18
(lp1607
F0.005
aI1
asg34
(lp1608
F0.9
aI3
ass(g106
(F1.75
F1.25
g10
tp1609
tp1610
(dp1611
g34
(lp1612
F0.05
aI3
asg20
(lp1613
F0.05
aI3
ass(g178
(F0.25
F0.75
g16
tp1614
tp1615
(dp1616
g34
(lp1617
F0.05
aI3
asg20
(lp1618
F0.05
aI3
ass(g740
(F0.75
F1.25
g12
tp1619
tp1620
(dp1621
g8
(lp1622
F0.8500000000000001
aI2
ass(g364
(F1.75
F0.75
g10
tp1623
tp1624
(dp1625
g48
(lp1626
F0.7
aI4
ass(g441
(F1.25
F1.25
g1
tp1627
tp1628
(dp1629
g8
(lp1630
F0.8500000000000001
aI2
ass(g715
(F0.75
F0.75
g10
tp1631
tp1632
(dp1633
g8
(lp1634
F0.15
aI2
ass(g594
(F0.75
F1.25
g1
tp1635
tp1636
(dp1637
g18
(lp1638
F0.99
aI1
asg34
(lp1639
F0.05
aI3
asg20
(lp1640
F0.05
aI3
ass(g457
(F0.25
F0.75
g16
tp1641
tp1642
(dp1643
g48
(lp1644
F0.15
aI4
ass(g508
(F2.25
F0.25
g12
tp1645
tp1646
(dp1647
g18
(lp1648
F0.005
aI1
asg20
(lp1649
F0.9
aI3
ass(g498
(F1.75
F0.75
g16
tp1650
tp1651
(dp1652
g18
(lp1653
F0.005
aI1
asg20
(lp1654
F0.9
aI3
ass(g22
(F1.25
F0.75
g16
tp1655
tp1656
(dp1657
g8
(lp1658
F0.1
aI2
ass(g740
(F0.75
F0.75
g12
tp1659
tp1660
(dp1661
g8
(lp1662
F0.15
aI2
ass(g168
(F1.75
F0.75
g12
tp1663
tp1664
(dp1665
g34
(lp1666
F0.05
aI3
asg20
(lp1667
F0.05
aI3
ass(g11
(F2.25
F1.25
g10
tp1668
tp1669
(dp1670
g8
(lp1671
F0.1
aI2
ass(g715
(F0.25
F0.25
g16
tp1672
tp1673
(dp1674
g34
(lp1675
F0.05
aI3
asg20
(lp1676
F0.05
aI3
ass(g452
(F1.75
F0.25
g1
tp1677
tp1678
(dp1679
g48
(lp1680
F0.15
aI4
ass(g740
(F0.25
F1.25
g1
tp1681
tp1682
(dp1683
g34
(lp1684
F0.05
aI3
asg20
(lp1685
F0.05
aI3
ass(g70
(F0.25
F0.25
g10
tp1686
tp1687
(dp1688
g18
(lp1689
F0.005
aI1
asg34
(lp1690
F0.9
aI3
ass(g134
(F2.25
F0.25
g16
tp1691
tp1692
(dp1693
g8
(lp1694
F0.1
aI2
ass(g457
(F0.75
F0.75
g16
tp1695
tp1696
(dp1697
g48
(lp1698
F0.7
aI4
ass(g508
(F2.25
F0.25
g10
tp1699
tp1700
(dp1701
g18
(lp1702
F0.99
aI1
asg34
(lp1703
F0.05
aI3
asg20
(lp1704
F0.05
aI3
ass(g396
(F1.75
F1.25
g12
tp1705
tp1706
(dp1707
g48
(lp1708
F0.15
aI4
ass(g64
(F0.25
F0.25
g12
tp1709
tp1710
(dp1711
g34
(lp1712
F0.05
aI3
asg20
(lp1713
F0.05
aI3
ass(g127
(F1.75
F1.25
g12
tp1714
tp1715
(dp1716
g8
(lp1717
F0.1
aI2
ass(g28
(F1.75
F0.25
g1
tp1718
tp1719
(dp1720
g8
(lp1721
F0.8500000000000001
aI2
ass(g2
(F2.25
F0.75
g1
tp1722
tp1723
(dp1724
g18
(lp1725
F0.99
aI1
asg34
(lp1726
F0.05
aI3
asg20
(lp1727
F0.05
aI3
ass(g881
(F1.75
F0.75
g12
tp1728
tp1729
(dp1730
g48
(lp1731
F0.225
aI4
ass(g498
(F1.75
F0.75
g12
tp1732
tp1733
(dp1734
g18
(lp1735
F0.99
aI1
asg34
(lp1736
F0.05
aI3
asg20
(lp1737
F0.05
aI3
ass(g184
(F1.75
F0.25
g10
tp1738
tp1739
(dp1740
g18
(lp1741
F0.99
aI1
asg34
(lp1742
F0.05
aI3
asg20
(lp1743
F0.05
aI3
ass(g36
(F0.25
F0.25
g12
tp1744
tp1745
(dp1746
g48
(lp1747
F0.7749999999999999
aI4
ass(g594
(F0.75
F1.25
g10
tp1748
tp1749
(dp1750
g18
(lp1751
F0.005
aI1
asg20
(lp1752
F0.9
aI3
ass(g77
(F0.75
F0.75
g1
tp1753
tp1754
(dp1755
g8
(lp1756
F0.15
aI2
ass(g870
(F1.75
F0.25
g10
tp1757
tp1758
(dp1759
g34
(lp1760
F0.05
aI3
asg20
(lp1761
F0.05
aI3
ass(g870
(F1.75
F0.75
g16
tp1762
tp1763
(dp1764
g48
(lp1765
F0.7
aI4
ass(g83
(F0.75
F0.75
g12
tp1766
tp1767
(dp1768
g48
(lp1769
F0.225
aI4
ass(g270
(F2.25
F1.25
g16
tp1770
tp1771
(dp1772
g48
(lp1773
F0.7749999999999999
aI4
ass(g339
(F1.75
F1.25
g1
tp1774
tp1775
(dp1776
g48
(lp1777
F0.7749999999999999
aI4
ass(g64
(F0.75
F0.25
g1
tp1778
tp1779
(dp1780
g48
(lp1781
F0.7749999999999999
aI4
ass(g184
(F1.75
F0.25
g1
tp1782
tp1783
(dp1784
g18
(lp1785
F0.005
aI1
asg34
(lp1786
F0.9
aI3
ass(g633
(F2.25
F0.75
g16
tp1787
tp1788
(dp1789
g34
(lp1790
F0.05
aI3
asg20
(lp1791
F0.05
aI3
ass(g594
(F0.25
F0.75
g1
tp1792
tp1793
(dp1794
g8
(lp1795
F0.15
aI2
ass(g36
(F0.25
F0.75
g12
tp1796
tp1797
(dp1798
g48
(lp1799
F0.225
aI4
ass(g441
(F1.75
F1.25
g1
tp1800
tp1801
(dp1802
g18
(lp1803
F0.99
aI1
asg34
(lp1804
F0.05
aI3
asg20
(lp1805
F0.05
aI3
ass(g633
(F2.25
F0.75
g1
tp1806
tp1807
(dp1808
g18
(lp1809
F0.005
aI1
asg34
(lp1810
F0.9
aI3
ass(g473
(F0.75
F0.25
g12
tp1811
tp1812
(dp1813
g18
(lp1814
F0.005
aI1
asg20
(lp1815
F0.9
aI3
ass(g735
(F2.25
F1.25
g1
tp1816
tp1817
(dp1818
g18
(lp1819
F0.005
aI1
asg20
(lp1820
F0.9
aI3
ass(g245
(F0.75
F0.75
g16
tp1821
tp1822
(dp1823
g18
(lp1824
F0.005
aI1
asg20
(lp1825
F0.9
aI3
ass(g50
(F1.25
F0.75
g12
tp1826
tp1827
(dp1828
g8
(lp1829
F0.15
aI2
ass(g498
(F1.25
F0.75
g12
tp1830
tp1831
(dp1832
g48
(lp1833
F0.7
aI4
ass(g225
(F0.75
F0.75
g16
tp1834
tp1835
(dp1836
g8
(lp1837
F0.1
aI2
ass(g50
(F0.75
F1.25
g12
tp1838
tp1839
(dp1840
g18
(lp1841
F0.99
aI1
asg34
(lp1842
F0.05
aI3
asg20
(lp1843
F0.05
aI3
ass(g28
(F2.25
F0.25
g12
tp1844
tp1845
(dp1846
g34
(lp1847
F0.05
aI3
asg20
(lp1848
F0.05
aI3
ass(g870
(F1.75
F0.25
g12
tp1849
tp1850
(dp1851
g18
(lp1852
F0.005
aI1
asg34
(lp1853
F0.9
aI3
ass(g609
(F1.75
F0.25
g10
tp1854
tp1855
(dp1856
g18
(lp1857
F0.005
aI1
asg34
(lp1858
F0.9
aI3
ass(g203
(F0.75
F0.75
g1
tp1859
tp1860
(dp1861
g48
(lp1862
F0.7
aI4
ass(g735
(F2.25
F1.25
g10
tp1863
tp1864
(dp1865
g34
(lp1866
F0.05
aI3
asg20
(lp1867
F0.05
aI3
ass(g178
(F0.75
F0.25
g10
tp1868
tp1869
(dp1870
g48
(lp1871
F0.225
aI4
ass(g70
(F0.25
F0.25
g1
tp1872
tp1873
(dp1874
g34
(lp1875
F0.05
aI3
asg20
(lp1876
F0.05
aI3
ass(g870
(F1.25
F0.75
g16
tp1877
tp1878
(dp1879
g48
(lp1880
F0.15
aI4
ass(g11
(F1.25
F0.25
g10
tp1881
tp1882
(dp1883
g48
(lp1884
F0.15
aI4
ass(g270
(F2.25
F0.75
g1
tp1885
tp1886
(dp1887
g18
(lp1888
F0.005
aI1
asg20
(lp1889
F0.9
aI3
ass(g178
(F0.25
F0.75
g10
tp1890
tp1891
(dp1892
g18
(lp1893
F0.99
aI1
asg34
(lp1894
F0.05
aI3
asg20
(lp1895
F0.05
aI3
ass(g88
(F1.25
F0.75
g10
tp1896
tp1897
(dp1898
g48
(lp1899
F0.7
aI4
ass(g498
(F2.25
F1.25
g12
tp1900
tp1901
(dp1902
g8
(lp1903
F0.1
aI2
ass(g370
(F0.75
F1.25
g10
tp1904
tp1905
(dp1906
g18
(lp1907
F0.99
aI1
asg34
(lp1908
F0.05
aI3
asg20
(lp1909
F0.05
aI3
ass(g250
(F0.75
F0.75
g12
tp1910
tp1911
(dp1912
g18
(lp1913
F0.005
aI1
asg20
(lp1914
F0.9
aI3
ass(g633
(F2.25
F0.75
g10
tp1915
tp1916
(dp1917
g18
(lp1918
F0.99
aI1
asg34
(lp1919
F0.05
aI3
asg20
(lp1920
F0.05
aI3
ass(g270
(F2.25
F0.75
g10
tp1921
tp1922
(dp1923
g34
(lp1924
F0.05
aI3
asg20
(lp1925
F0.05
aI3
ass(g315
(F1.25
F0.25
g1
tp1926
tp1927
(dp1928
g18
(lp1929
F0.005
aI1
asg34
(lp1930
F0.9
aI3
ass(g473
(F0.75
F0.25
g16
tp1931
tp1932
(dp1933
g34
(lp1934
F0.05
aI3
asg20
(lp1935
F0.05
aI3
ass(g290
(F0.25
F1.25
g16
tp1936
tp1937
(dp1938
g48
(lp1939
F0.7749999999999999
aI4
ass(g36
(F1.25
F0.25
g12
tp1940
tp1941
(dp1942
g8
(lp1943
F0.8500000000000001
aI2
ass(g315
(F1.25
F0.25
g12
tp1944
tp1945
(dp1946
g18
(lp1947
F0.005
aI1
asg20
(lp1948
F0.9
aI3
ass(g134
(F1.75
F1.25
g16
tp1949
tp1950
(dp1951
g48
(lp1952
F0.7
aI4
ass(g457
(F0.75
F0.25
g1
tp1953
tp1954
(dp1955
g18
(lp1956
F0.005
aI1
asg20
(lp1957
F0.9
aI3
ass(g168
(F1.25
F0.75
g1
tp1958
tp1959
(dp1960
g8
(lp1961
F0.8
aI2
ass(g42
(F0.25
F1.25
g1
tp1962
tp1963
(dp1964
g18
(lp1965
F0.99
aI1
asg34
(lp1966
F0.05
aI3
asg20
(lp1967
F0.05
aI3
ass(g457
(F1.25
F0.75
g16
tp1968
tp1969
(dp1970
g48
(lp1971
F0.15
aI4
ass(g100
(F1.75
F1.25
g1
tp1972
tp1973
(dp1974
g34
(lp1975
F0.05
aI3
asg20
(lp1976
F0.05
aI3
ass(g811
(F0.25
F0.25
g16
tp1977
tp1978
(dp1979
g18
(lp1980
F0.99
aI1
asg34
(lp1981
F0.05
aI3
asg20
(lp1982
F0.05
aI3
ass(g498
(F1.25
F1.25
g12
tp1983
tp1984
(dp1985
g48
(lp1986
F0.15
aI4
ass(g310
(F0.25
F0.25
g1
tp1987
tp1988
(dp1989
g8
(lp1990
F0.1
aI2
ass(g441
(F2.25
F1.25
g1
tp1991
tp1992
(dp1993
g48
(lp1994
F0.7749999999999999
aI4
ass(g22
(F0.75
F1.25
g10
tp1995
tp1996
(dp1997
g34
(lp1998
F0.05
aI3
asg20
(lp1999
F0.05
aI3
ass(g70
(F0.25
F0.25
g16
tp2000
tp2001
(dp2002
g18
(lp2003
F0.005
aI1
asg20
(lp2004
F0.9
aI3
ass(g77
(F0.75
F0.25
g1
tp2005
tp2006
(dp2007
g8
(lp2008
F0.8500000000000001
aI2
ass(g508
(F2.25
F0.25
g16
tp2009
tp2010
(dp2011
g34
(lp2012
F0.05
aI3
asg20
(lp2013
F0.05
aI3
ass(g184
(F2.25
F0.75
g10
tp2014
tp2015
(dp2016
g8
(lp2017
F0.1
aI2
ass(g310
(F1.25
F0.25
g1
tp2018
tp2019
(dp2020
g48
(lp2021
F0.15
aI4
ass(g435
(F1.75
F0.75
g10
tp2022
tp2023
(dp2024
g48
(lp2025
F0.225
aI4
ass(g870
(F1.75
F0.25
g16
tp2026
tp2027
(dp2028
g18
(lp2029
F0.99
aI1
asg34
(lp2030
F0.05
aI3
asg20
(lp2031
F0.05
aI3
ass(g364
(F1.75
F1.25
g10
tp2032
tp2033
(dp2034
g18
(lp2035
F0.99
aI1
asg34
(lp2036
F0.05
aI3
asg20
(lp2037
F0.05
aI3
ass(g64
(F0.25
F0.25
g16
tp2038
tp2039
(dp2040
g18
(lp2041
F0.005
aI1
asg34
(lp2042
F0.9
aI3
ass(g609
(F1.75
F0.25
g12
tp2043
tp2044
(dp2045
g18
(lp2046
F0.99
aI1
asg34
(lp2047
F0.05
aI3
asg20
(lp2048
F0.05
aI3
ass(g100
(F1.75
F1.25
g12
tp2049
tp2050
(dp2051
g18
(lp2052
F0.99
aI1
asg34
(lp2053
F0.05
aI3
asg20
(lp2054
F0.05
aI3
ass(g77
(F1.75
F0.25
g1
tp2055
tp2056
(dp2057
g48
(lp2058
F0.7749999999999999
aI4
ass(g151
(F0.75
F0.75
g16
tp2059
tp2060
(dp2061
g48
(lp2062
F0.15
aI4
ass(g870
(F2.25
F0.75
g16
tp2063
tp2064
(dp2065
g48
(lp2066
F0.15
aI4
ass(g310
(F0.75
F0.75
g12
tp2067
tp2068
(dp2069
g34
(lp2070
F0.05
aI3
asg20
(lp2071
F0.05
aI3
ass(g881
(F2.25
F1.25
g10
tp2072
tp2073
(dp2074
g18
(lp2075
F0.005
aI1
asg34
(lp2076
F0.9
aI3
ass(g609
(F2.25
F0.25
g12
tp2077
tp2078
(dp2079
g8
(lp2080
F0.8500000000000001
aI2
ass(g245
(F0.75
F0.75
g10
tp2081
tp2082
(dp2083
g18
(lp2084
F0.005
aI1
asg34
(lp2085
F0.9
aI3
ass(g11
(F1.75
F0.25
g10
tp2086
tp2087
(dp2088
g48
(lp2089
F0.7
aI4
ass(g735
(F2.25
F1.25
g16
tp2090
tp2091
(dp2092
g18
(lp2093
F0.99
aI1
asg34
(lp2094
F0.05
aI3
asg20
(lp2095
F0.05
aI3
ass(g203
(F0.75
F0.25
g1
tp2096
tp2097
(dp2098
g48
(lp2099
F0.15
aI4
ass(g146
(F0.25
F1.25
g12
tp2100
tp2101
(dp2102
g18
(lp2103
F0.005
aI1
asg20
(lp2104
F0.9
aI3
ass(g633
(F1.75
F1.25
g10
tp2105
tp2106
(dp2107
g8
(lp2108
F0.15
aI2
ass(g740
(F0.25
F1.25
g16
tp2109
tp2110
(dp2111
g18
(lp2112
F0.005
aI1
asg20
(lp2113
F0.9
aI3
ass(g452
(F1.25
F0.75
g1
tp2114
tp2115
(dp2116
g18
(lp2117
F0.99
aI1
asg34
(lp2118
F0.05
aI3
asg20
(lp2119
F0.05
aI3
ass(g540
(F0.75
F0.25
g10
tp2120
tp2121
(dp2122
g48
(lp2123
F0.15
aI4
ass(g452
(F1.25
F0.75
g16
tp2124
tp2125
(dp2126
g18
(lp2127
F0.005
aI1
asg34
(lp2128
F0.9
aI3
ass(g310
(F0.75
F0.75
g16
tp2129
tp2130
(dp2131
g18
(lp2132
F0.005
aI1
asg34
(lp2133
F0.9
aI3
ass(g95
(F0.25
F0.25
g1
tp2134
tp2135
(dp2136
g8
(lp2137
F0.8500000000000001
aI2
ass(g391
(F1.25
F0.75
g10
tp2138
tp2139
(dp2140
g34
(lp2141
F0.05
aI3
asg20
(lp2142
F0.05
aI3
ass(g83
(F1.75
F0.75
g12
tp2143
tp2144
(dp2145
g8
(lp2146
F0.15
aI2
ass(g70
(F0.75
F0.25
g12
tp2147
tp2148
(dp2149
g8
(lp2150
F0.8500000000000001
aI2
ass(g134
(F2.25
F1.25
g16
tp2151
tp2152
(dp2153
g48
(lp2154
F0.15
aI4
ass(g225
(F1.75
F0.75
g16
tp2155
tp2156
(dp2157
g8
(lp2158
F0.1
aI2
ass(g36
(F0.75
F0.25
g16
tp2159
tp2160
(dp2161
g18
(lp2162
F0.005
aI1
asg20
(lp2163
F0.9
aI3
ass(g540
(F1.25
F1.25
g10
tp2164
tp2165
(dp2166
g8
(lp2167
F0.8
aI2
ass(g55
(F0.25
F1.25
g16
tp2168
tp2169
(dp2170
g48
(lp2171
F0.15
aI4
ass(g88
(F0.75
F0.75
g10
tp2172
tp2173
(dp2174
g48
(lp2175
F0.15
aI4
ass(g508
(F2.25
F0.25
g1
tp2176
tp2177
(dp2178
g18
(lp2179
F0.005
aI1
asg34
(lp2180
F0.9
aI3
ass(g540
(F1.25
F0.25
g10
tp2181
tp2182
(dp2183
g48
(lp2184
F0.7
aI4
ass(g255
(F1.25
F0.25
g12
tp2185
tp2186
(dp2187
g18
(lp2188
F0.99
aI1
asg34
(lp2189
F0.05
aI3
asg20
(lp2190
F0.05
aI3
ass(g435
(F2.25
F1.25
g16
tp2191
tp2192
(dp2193
g34
(lp2194
F0.05
aI3
asg20
(lp2195
F0.05
aI3
ass(g391
(F1.75
F1.25
g16
tp2196
tp2197
(dp2198
g48
(lp2199
F0.15
aI4
ass.