((lp0
((F0.25
F0.25
S'E'
p1
tp2
c__builtin__
frozenset
p3
((lp4
tp5
Rp6
I0
tp7
a((F0.75
F0.25
g1
tp8
g6
I0
tp9
a((F1.25
F0.25
g1
tp10
g6
I0
tp11
a((F1.75
F0.25
g1
tp12
g6
I0
tp13
a((F2.25
F0.25
g1
tp14
g3
((lp15
S'base1'
p16
aS'base'
p17
atp18
Rp19
I0
tp20
a((F2.25
F0.25
S'N'
p21
tp22
g19
I1
tp23
a((F2.25
F0.75
g21
tp24
g6
I1
tp25
a((F2.25
F1.25
g21
tp26
g3
((lp27
S'base2'
p28
ag17
atp29
Rp30
I1
tp31
a((F2.25
F1.25
g21
tp32
g30
I2
tp33
a((F1.75
F0.75
g21
tp34
g6
I2
tp35
a((F1.75
F0.25
g21
tp36
g6
I2
tp37
a((F1.75
F0.25
S'W'
p38
tp39
g6
I2
tp40
a((F1.25
F0.25
g38
tp41
g6
I2
tp42
a((F0.75
F0.25
g38
tp43
g6
I2
tp44
a((F0.25
F0.25
g38
tp45
g6
I2
tp46
a((F0.25
F0.25
g21
tp47
g6
I2
tp48
a((F0.25
F0.75
g21
tp49
g6
I2
tp50
a((F0.25
F1.25
g21
tp51
g3
((lp52
S'base3'
p53
ag17
atp54
Rp55
I2
tp56
a((F0.75
F0.75
g21
tp57
g6
I3
tp58
a((F0.25
F0.25
g21
tp59
g6
I3
tp60
a((F0.25
F0.25
g1
tp61
g6
I3
tp62
a(g8
g6
I3
tp63
a(g10
g6
I3
tp64
a(g12
g6
I3
tp65
a(g14
g19
I3
tp66
a(g22
g19
I4
tp67
a(g24
g6
I4
tp68
a(g26
g30
I4
tp69
a(g32
g30
I6
tp70
a((F2.25
F1.25
g1
tp71
g30
I2
tp72
a(lp73
S"('F', 'R')"
p74
aS"('F', 'R')"
p75
aS"('F', 'R')"
p76
aS"('F', 'R')"
p77
aS"('T', 'L')"
p78
aS"('F', 'R')"
p79
aS"('F', 'R')"
p80
aS"('S', 'T')"
p81
aS"('B', 'K')"
p82
aS"('B', 'K')"
p83
aS"('T', 'L')"
p84
aS"('F', 'R')"
p85
aS"('F', 'R')"
p86
aS"('F', 'R')"
p87
aS"('T', 'R')"
p88
aS"('F', 'R')"
p89
aS"('F', 'R')"
p90
aS"('B', 'K')"
p91
aS"('B', 'K')"
p92
aS"('T', 'R')"
p93
aS"('F', 'R')"
p94
aS"('F', 'R')"
p95
aS"('F', 'R')"
p96
aS"('F', 'R')"
p97
aS"('T', 'L')"
p98
aS"('F', 'R')"
p99
aS"('F', 'R')"
p100
aS"('S', 'T')"
p101
aS"('T', 'R')"
p102
aS"('T', 'R')"
p103
atp104
.