(dp0
((F2.25
F0.75
S'W'
p1
tp2
(F1.75
F0.25
g1
tp3
tp4
(dp5
(S'F'
p6
S'R'
p7
tp8
(lp9
F0.1
aI2
ass((F1.25
F0.75
S'N'
p10
tp11
(F1.25
F0.75
S'E'
p12
tp13
tp14
(dp15
(S'S'
p16
S'T'
p17
tp18
(lp19
F0.005
aI1
as(g17
g7
tp20
(lp21
F0.9
aI3
ass((F1.25
F1.25
g1
tp22
(F1.75
F0.75
g1
tp23
tp24
(dp25
(S'B'
p26
S'K'
p27
tp28
(lp29
F0.225
aI4
ass((F0.75
F1.25
g16
tp30
(F0.75
F1.25
g1
tp31
tp32
(dp33
g18
(lp34
F0.005
aI1
asg20
(lp35
F0.9
aI3
ass((F0.25
F1.25
g16
tp36
(F0.25
F0.75
g16
tp37
tp38
(dp39
g8
(lp40
F0.8500000000000001
aI2
ass((F2.25
F0.25
g1
tp41
(F2.25
F0.25
g16
tp42
tp43
(dp44
g18
(lp45
F0.005
aI1
as(g17
S'L'
p46
tp47
(lp48
F0.9
aI3
ass((F0.75
F0.25
g12
tp49
(F0.75
F0.25
g10
tp50
tp51
(dp52
g18
(lp53
F0.005
aI1
asg47
(lp54
F0.9
aI3
ass((F0.25
F1.25
g1
tp55
(F0.75
F1.25
g1
tp56
tp57
(dp58
g28
(lp59
F0.7749999999999999
aI4
ass((F0.75
F1.25
g12
tp60
(F1.25
F1.25
g12
tp61
tp62
(dp63
g8
(lp64
F0.8500000000000001
aI2
ass((F0.75
F0.75
g16
tp65
(F1.25
F1.25
g16
tp66
tp67
(dp68
g28
(lp69
F0.15
aI4
ass(g2
(F1.75
F1.25
g1
tp70
tp71
(dp72
g8
(lp73
F0.1
aI2
ass((F2.25
F0.75
g16
tp74
(F2.25
F0.75
g16
tp75
tp76
(dp77
g18
(lp78
F0.99
aI1
asg47
(lp79
F0.05
aI3
asg20
(lp80
F0.05
aI3
ass((F0.25
F0.25
g1
tp81
(F0.25
F0.25
g10
tp82
tp83
(dp84
g18
(lp85
F0.005
aI1
asg20
(lp86
F0.9
aI3
ass((F0.25
F0.25
g12
tp87
(F0.25
F0.25
g12
tp88
tp89
(dp90
g18
(lp91
F0.99
aI1
asg47
(lp92
F0.05
aI3
asg20
(lp93
F0.05
aI3
ass((F1.25
F0.25
g1
tp94
(F1.25
F0.25
g16
tp95
tp96
(dp97
g18
(lp98
F0.005
aI1
asg47
(lp99
F0.9
aI3
ass((F1.75
F1.25
g10
tp100
(F1.75
F1.25
g10
tp101
tp102
(dp103
g18
(lp104
F0.99
aI1
asg47
(lp105
F0.05
aI3
asg20
(lp106
F0.05
aI3
ass((F0.75
F0.25
g1
tp107
(F1.25
F0.25
g1
tp108
tp109
(dp110
g28
(lp111
F0.7749999999999999
aI4
ass(g60
(F0.75
F1.25
g16
tp112
tp113
(dp114
g18
(lp115
F0.005
aI1
asg20
(lp116
F0.9
aI3
ass((F1.75
F1.25
g16
tp117
(F1.75
F0.75
g16
tp118
tp119
(dp120
g8
(lp121
F0.8
aI2
ass((F1.25
F1.25
g10
tp122
(F1.25
F1.25
g1
tp123
tp124
(dp125
g18
(lp126
F0.005
aI1
asg47
(lp127
F0.9
aI3
ass(g107
(F0.75
F0.25
g1
tp128
tp129
(dp130
g18
(lp131
F0.99
aI1
asg47
(lp132
F0.05
aI3
asg20
(lp133
F0.05
aI3
ass(g49
(F0.75
F0.25
g1
tp134
tp135
(dp136
g47
(lp137
F0.05
aI3
asg20
(lp138
F0.05
aI3
ass((F1.75
F0.25
g10
tp139
(F1.75
F0.75
g10
tp140
tp141
(dp142
g8
(lp143
F0.8
aI2
ass((F1.75
F0.75
g12
tp144
(F1.75
F0.75
g12
tp145
tp146
(dp147
g18
(lp148
F0.99
aI1
asg47
(lp149
F0.05
aI3
asg20
(lp150
F0.05
aI3
ass((F1.75
F0.75
g16
tp151
(F1.75
F0.75
g16
tp152
tp153
(dp154
g18
(lp155
F0.99
aI1
asg47
(lp156
F0.05
aI3
asg20
(lp157
F0.05
aI3
ass((F2.25
F0.75
g12
tp158
(F2.25
F0.75
g12
tp159
tp160
(dp161
g18
(lp162
F0.99
aI1
asg47
(lp163
F0.05
aI3
asg20
(lp164
F0.05
aI3
ass((F1.25
F1.25
g12
tp165
(F1.25
F1.25
g10
tp166
tp167
(dp168
g18
(lp169
F0.005
aI1
asg47
(lp170
F0.9
aI3
ass((F0.25
F0.75
g10
tp171
(F0.75
F1.25
g10
tp172
tp173
(dp174
g8
(lp175
F0.15
aI2
ass((F1.25
F0.25
g16
tp176
(F1.25
F0.25
g10
tp177
tp178
(dp179
g47
(lp180
F0.05
aI3
asg20
(lp181
F0.05
aI3
ass(g2
(F2.25
F0.75
g10
tp182
tp183
(dp184
g18
(lp185
F0.005
aI1
asg20
(lp186
F0.9
aI3
ass((F1.75
F0.25
g1
tp187
(F1.75
F0.25
g16
tp188
tp189
(dp190
g18
(lp191
F0.005
aI1
asg47
(lp192
F0.9
aI3
ass((F1.75
F0.75
g1
tp193
(F2.25
F0.75
g1
tp194
tp195
(dp196
g28
(lp197
F0.7
aI4
ass((F1.25
F0.75
g16
tp198
(F1.25
F0.75
g10
tp199
tp200
(dp201
g47
(lp202
F0.05
aI3
asg20
(lp203
F0.05
aI3
ass(g139
(F1.75
F0.25
g16
tp204
tp205
(dp206
g47
(lp207
F0.05
aI3
asg20
(lp208
F0.05
aI3
ass(g151
(F1.75
F0.25
g16
tp209
tp210
(dp211
g8
(lp212
F0.8
aI2
ass(g65
(F0.75
F0.25
g16
tp213
tp214
(dp215
g8
(lp216
F0.8
aI2
ass((F2.25
F0.25
g12
tp217
(F1.75
F0.25
g12
tp218
tp219
(dp220
g28
(lp221
F0.7749999999999999
aI4
ass((F0.25
F0.75
g1
tp222
(F0.25
F0.75
g1
tp223
tp224
(dp225
g18
(lp226
F0.99
aI1
asg47
(lp227
F0.05
aI3
asg20
(lp228
F0.05
aI3
ass(g41
(F2.25
F0.25
g1
tp229
tp230
(dp231
g18
(lp232
F0.99
aI1
asg47
(lp233
F0.05
aI3
asg20
(lp234
F0.05
aI3
ass(g55
(F0.75
F0.75
g1
tp235
tp236
(dp237
g28
(lp238
F0.225
aI4
ass(g41
(F2.25
F0.25
g10
tp239
tp240
(dp241
g18
(lp242
F0.005
aI1
asg20
(lp243
F0.9
aI3
ass((F1.25
F1.25
g16
tp244
(F1.25
F1.25
g1
tp245
tp246
(dp247
g18
(lp248
F0.005
aI1
asg20
(lp249
F0.9
aI3
ass(g176
(F1.25
F0.25
g16
tp250
tp251
(dp252
g18
(lp253
F0.99
aI1
asg47
(lp254
F0.05
aI3
asg20
(lp255
F0.05
aI3
ass((F1.75
F0.75
g10
tp256
(F1.75
F0.75
g12
tp257
tp258
(dp259
g18
(lp260
F0.005
aI1
asg20
(lp261
F0.9
aI3
ass(g122
(F1.75
F0.75
g10
tp262
tp263
(dp264
g28
(lp265
F0.15
aI4
ass(g65
(F1.25
F0.25
g16
tp266
tp267
(dp268
g8
(lp269
F0.1
aI2
ass((F0.75
F0.75
g12
tp270
(F1.25
F1.25
g12
tp271
tp272
(dp273
g8
(lp274
F0.1
aI2
ass((F0.75
F0.75
g10
tp275
(F0.25
F0.25
g10
tp276
tp277
(dp278
g28
(lp279
F0.15
aI4
ass((F1.25
F0.25
g12
tp280
(F1.25
F0.25
g16
tp281
tp282
(dp283
g18
(lp284
F0.005
aI1
asg20
(lp285
F0.9
aI3
ass((F2.25
F0.25
g10
tp286
(F2.25
F0.25
g16
tp287
tp288
(dp289
g47
(lp290
F0.05
aI3
asg20
(lp291
F0.05
aI3
ass(g74
(F2.25
F0.25
g16
tp292
tp293
(dp294
g8
(lp295
F0.8500000000000001
aI2
ass(g171
(F0.25
F0.75
g12
tp296
tp297
(dp298
g18
(lp299
F0.005
aI1
asg20
(lp300
F0.9
aI3
ass((F0.25
F1.25
g10
tp301
(F0.25
F1.25
g10
tp302
tp303
(dp304
g18
(lp305
F0.99
aI1
asg47
(lp306
F0.05
aI3
asg20
(lp307
F0.05
aI3
ass((F1.75
F1.25
g12
tp308
(F2.25
F1.25
g12
tp309
tp310
(dp311
g8
(lp312
F0.8500000000000001
aI2
ass((F0.25
F0.75
g16
tp313
(F0.25
F0.75
g12
tp314
tp315
(dp316
g18
(lp317
F0.005
aI1
asg47
(lp318
F0.9
aI3
ass(g74
(F2.25
F0.75
g10
tp319
tp320
(dp321
g47
(lp322
F0.05
aI3
asg20
(lp323
F0.05
aI3
ass(g117
(F1.25
F0.75
g16
tp324
tp325
(dp326
g8
(lp327
F0.1
aI2
ass((F0.75
F0.75
g1
tp328
(F1.25
F1.25
g1
tp329
tp330
(dp331
g28
(lp332
F0.15
aI4
ass((F1.25
F0.25
g10
tp333
(F1.25
F0.25
g16
tp334
tp335
(dp336
g47
(lp337
F0.05
aI3
asg20
(lp338
F0.05
aI3
ass((F0.25
F0.75
g12
tp339
(F0.25
F0.75
g16
tp340
tp341
(dp342
g18
(lp343
F0.005
aI1
asg20
(lp344
F0.9
aI3
ass((F2.25
F0.25
g16
tp345
(F2.25
F0.25
g12
tp346
tp347
(dp348
g18
(lp349
F0.005
aI1
asg47
(lp350
F0.9
aI3
ass(g117
(F1.75
F1.25
g16
tp351
tp352
(dp353
g18
(lp354
F0.99
aI1
asg47
(lp355
F0.05
aI3
asg20
(lp356
F0.05
aI3
ass((F2.25
F0.75
g10
tp357
(F1.75
F1.25
g10
tp358
tp359
(dp360
g8
(lp361
F0.15
aI2
ass((F1.75
F1.25
g1
tp362
(F1.75
F1.25
g16
tp363
tp364
(dp365
g18
(lp366
F0.005
aI1
asg47
(lp367
F0.9
aI3
ass(g22
(F0.75
F1.25
g1
tp368
tp369
(dp370
g8
(lp371
F0.8500000000000001
aI2
ass(g193
(F1.75
F0.75
g16
tp372
tp373
(dp374
g18
(lp375
F0.005
aI1
asg47
(lp376
F0.9
aI3
ass(g275
(F0.75
F0.75
g16
tp377
tp378
(dp379
g47
(lp380
F0.05
aI3
asg20
(lp381
F0.05
aI3
ass((F1.25
F0.75
g12
tp382
(F1.25
F0.75
g1
tp383
tp384
(dp385
g47
(lp386
F0.05
aI3
asg20
(lp387
F0.05
aI3
ass(g100
(F1.75
F1.25
g1
tp388
tp389
(dp390
g18
(lp391
F0.005
aI1
asg47
(lp392
F0.9
aI3
ass((F0.75
F1.25
g10
tp393
(F0.75
F1.25
g1
tp394
tp395
(dp396
g18
(lp397
F0.005
aI1
asg47
(lp398
F0.9
aI3
ass(g74
(F2.25
F0.75
g12
tp399
tp400
(dp401
g18
(lp402
F0.005
aI1
asg47
(lp403
F0.9
aI3
ass(g308
(F1.75
F1.25
g1
tp404
tp405
(dp406
g47
(lp407
F0.05
aI3
asg20
(lp408
F0.05
aI3
ass(g339
(F0.25
F0.75
g10
tp409
tp410
(dp411
g18
(lp412
F0.005
aI1
asg47
(lp413
F0.9
aI3
ass(g198
(F0.75
F0.25
g16
tp414
tp415
(dp416
g8
(lp417
F0.1
aI2
ass((F1.75
F0.25
g12
tp418
(F1.25
F0.25
g12
tp419
tp420
(dp421
g28
(lp422
F0.7749999999999999
aI4
ass(g2
(F1.75
F0.75
g1
tp423
tp424
(dp425
g8
(lp426
F0.8
aI2
ass(g198
(F1.25
F0.75
g12
tp427
tp428
(dp429
g18
(lp430
F0.005
aI1
asg47
(lp431
F0.9
aI3
ass(g280
(F1.25
F0.25
g1
tp432
tp433
(dp434
g47
(lp435
F0.05
aI3
asg20
(lp436
F0.05
aI3
ass(g301
(F0.75
F0.75
g10
tp437
tp438
(dp439
g28
(lp440
F0.225
aI4
ass(g244
(F1.25
F1.25
g16
tp441
tp442
(dp443
g18
(lp444
F0.99
aI1
asg47
(lp445
F0.05
aI3
asg20
(lp446
F0.05
aI3
ass(g382
(F1.25
F0.75
g10
tp447
tp448
(dp449
g18
(lp450
F0.005
aI1
asg47
(lp451
F0.9
aI3
ass(g244
(F1.25
F1.25
g10
tp452
tp453
(dp454
g47
(lp455
F0.05
aI3
asg20
(lp456
F0.05
aI3
ass(g256
(F1.75
F0.75
g16
tp457
tp458
(dp459
g47
(lp460
F0.05
aI3
asg20
(lp461
F0.05
aI3
ass(g22
(F1.25
F1.25
g1
tp462
tp463
(dp464
g18
(lp465
F0.99
aI1
asg47
(lp466
F0.05
aI3
asg20
(lp467
F0.05
aI3
ass((F2.25
F1.25
g10
tp468
(F2.25
F1.25
g12
tp469
tp470
(dp471
g18
(lp472
F0.005
aI1
asg20
(lp473
F0.9
aI3
ass(g22
(F1.25
F1.25
g12
tp474
tp475
(dp476
g47
(lp477
F0.05
aI3
asg20
(lp478
F0.05
aI3
ass(g308
(F1.75
F1.25
g16
tp479
tp480
(dp481
g18
(lp482
F0.005
aI1
asg20
(lp483
F0.9
aI3
ass((F1.25
F0.75
g1
tp484
(F1.75
F0.75
g1
tp485
tp486
(dp487
g28
(lp488
F0.7
aI4
ass(g65
(F0.25
F0.25
g16
tp489
tp490
(dp491
g8
(lp492
F0.1
aI2
ass(g217
(F1.75
F0.75
g12
tp493
tp494
(dp495
g28
(lp496
F0.225
aI4
ass(g301
(F0.25
F1.25
g1
tp497
tp498
(dp499
g18
(lp500
F0.005
aI1
asg47
(lp501
F0.9
aI3
ass((F0.75
F0.25
g10
tp502
(F0.25
F0.75
g10
tp503
tp504
(dp505
g8
(lp506
F0.1
aI2
ass(g198
(F1.25
F0.75
g1
tp507
tp508
(dp509
g18
(lp510
F0.005
aI1
asg20
(lp511
F0.9
aI3
ass(g187
(F1.75
F0.25
g10
tp512
tp513
(dp514
g18
(lp515
F0.005
aI1
asg20
(lp516
F0.9
aI3
ass(g187
(F2.25
F0.25
g1
tp517
tp518
(dp519
g28
(lp520
F0.7749999999999999
aI4
ass(g468
(F2.25
F1.25
g10
tp521
tp522
(dp523
g18
(lp524
F0.99
aI1
asg47
(lp525
F0.05
aI3
asg20
(lp526
F0.05
aI3
ass((F0.25
F1.25
g12
tp527
(F0.25
F1.25
g16
tp528
tp529
(dp530
g18
(lp531
F0.005
aI1
asg20
(lp532
F0.9
aI3
ass(g144
(F1.25
F0.25
g12
tp533
tp534
(dp535
g28
(lp536
F0.15
aI4
ass(g49
(F0.75
F0.25
g12
tp537
tp538
(dp539
g18
(lp540
F0.99
aI1
asg47
(lp541
F0.05
aI3
asg20
(lp542
F0.05
aI3
ass(g502
(F0.75
F0.25
g1
tp543
tp544
(dp545
g18
(lp546
F0.005
aI1
asg47
(lp547
F0.9
aI3
ass(g301
(F0.25
F1.25
g16
tp548
tp549
(dp550
g47
(lp551
F0.05
aI3
asg20
(lp552
F0.05
aI3
ass(g30
(F0.75
F1.25
g12
tp553
tp554
(dp555
g18
(lp556
F0.005
aI1
asg47
(lp557
F0.9
aI3
ass(g107
(F0.75
F0.25
g10
tp558
tp559
(dp560
g18
(lp561
F0.005
aI1
asg20
(lp562
F0.9
aI3
ass(g144
(F2.25
F0.75
g12
tp563
tp564
(dp565
g8
(lp566
F0.8
aI2
ass(g11
(F0.75
F0.25
g10
tp567
tp568
(dp569
g28
(lp570
F0.15
aI4
ass(g87
(F0.75
F0.75
g12
tp571
tp572
(dp573
g8
(lp574
F0.15
aI2
ass(g11
(F1.25
F0.75
g10
tp575
tp576
(dp577
g18
(lp578
F0.99
aI1
asg47
(lp579
F0.05
aI3
asg20
(lp580
F0.05
aI3
ass(g362
(F1.25
F0.75
g1
tp581
tp582
(dp583
g8
(lp584
F0.15
aI2
ass(g100
(F1.75
F1.25
g12
tp585
tp586
(dp587
g18
(lp588
F0.005
aI1
asg20
(lp589
F0.9
aI3
ass(g393
(F1.25
F0.75
g10
tp590
tp591
(dp592
g28
(lp593
F0.15
aI4
ass((F2.25
F1.25
g1
tp594
(F2.25
F1.25
g12
tp595
tp596
(dp597
g47
(lp598
F0.05
aI3
asg20
(lp599
F0.05
aI3
ass(g171
(F0.25
F1.25
g10
tp600
tp601
(dp602
g8
(lp603
F0.8500000000000001
aI2
ass((F0.75
F0.25
g16
tp604
(F0.75
F0.25
g1
tp605
tp606
(dp607
g18
(lp608
F0.005
aI1
asg20
(lp609
F0.9
aI3
ass(g22
(F1.25
F1.25
g10
tp610
tp611
(dp612
g18
(lp613
F0.005
aI1
asg20
(lp614
F0.9
aI3
ass(g165
(F0.75
F0.75
g12
tp615
tp616
(dp617
g28
(lp618
F0.225
aI4
ass((F1.75
F0.25
g16
tp619
(F1.75
F0.25
g16
tp620
tp621
(dp622
g18
(lp623
F0.99
aI1
asg47
(lp624
F0.05
aI3
asg20
(lp625
F0.05
aI3
ass(g594
(F2.25
F1.25
g16
tp626
tp627
(dp628
g18
(lp629
F0.005
aI1
asg47
(lp630
F0.9
aI3
ass(g280
(F0.75
F0.75
g12
tp631
tp632
(dp633
g28
(lp634
F0.225
aI4
ass(g122
(F1.25
F1.25
g16
tp635
tp636
(dp637
g47
(lp638
F0.05
aI3
asg20
(lp639
F0.05
aI3
ass(g158
(F2.25
F0.75
g1
tp640
tp641
(dp642
g47
(lp643
F0.05
aI3
asg20
(lp644
F0.05
aI3
ass(g151
(F1.25
F0.25
g16
tp645
tp646
(dp647
g8
(lp648
F0.1
aI2
ass(g165
(F1.25
F1.25
g16
tp649
tp650
(dp651
g18
(lp652
F0.005
aI1
asg20
(lp653
F0.9
aI3
ass(g357
(F2.25
F0.25
g10
tp654
tp655
(dp656
g28
(lp657
F0.7749999999999999
aI4
ass(g107
(F0.75
F0.25
g16
tp658
tp659
(dp660
g18
(lp661
F0.005
aI1
asg47
(lp662
F0.9
aI3
ass(g198
(F1.25
F0.75
g16
tp663
tp664
(dp665
g18
(lp666
F0.99
aI1
asg47
(lp667
F0.05
aI3
asg20
(lp668
F0.05
aI3
ass(g193
(F1.75
F0.75
g10
tp669
tp670
(dp671
g18
(lp672
F0.005
aI1
asg20
(lp673
F0.9
aI3
ass(g198
(F1.25
F1.25
g16
tp674
tp675
(dp676
g28
(lp677
F0.7
aI4
ass(g604
(F1.25
F0.75
g16
tp678
tp679
(dp680
g28
(lp681
F0.15
aI4
ass(g165
(F1.25
F1.25
g12
tp682
tp683
(dp684
g18
(lp685
F0.99
aI1
asg47
(lp686
F0.05
aI3
asg20
(lp687
F0.05
aI3
ass(g357
(F1.75
F0.25
g10
tp688
tp689
(dp690
g28
(lp691
F0.225
aI4
ass(g49
(F1.25
F0.75
g12
tp692
tp693
(dp694
g8
(lp695
F0.15
aI2
ass(g94
(F1.75
F0.75
g1
tp696
tp697
(dp698
g28
(lp699
F0.225
aI4
ass(g484
(F1.25
F0.75
g10
tp700
tp701
(dp702
g18
(lp703
F0.005
aI1
asg20
(lp704
F0.9
aI3
ass(g328
(F1.25
F0.75
g1
tp705
tp706
(dp707
g28
(lp708
F0.7
aI4
ass(g30
(F1.25
F0.75
g16
tp709
tp710
(dp711
g8
(lp712
F0.1
aI2
ass(g339
(F0.75
F1.25
g12
tp713
tp714
(dp715
g8
(lp716
F0.1
aI2
ass(g36
(F0.25
F1.25
g10
tp717
tp718
(dp719
g47
(lp720
F0.05
aI3
asg20
(lp721
F0.05
aI3
ass(g65
(F0.75
F1.25
g16
tp722
tp723
(dp724
g28
(lp725
F0.7
aI4
ass(g270
(F0.25
F0.75
g12
tp726
tp727
(dp728
g28
(lp729
F0.7
aI4
ass((F0.25
F0.25
g10
tp730
(F0.25
F0.25
g1
tp731
tp732
(dp733
g18
(lp734
F0.005
aI1
asg47
(lp735
F0.9
aI3
ass(g362
(F2.25
F1.25
g1
tp736
tp737
(dp738
g28
(lp739
F0.7749999999999999
aI4
ass(g594
(F2.25
F1.25
g1
tp740
tp741
(dp742
g18
(lp743
F0.99
aI1
asg47
(lp744
F0.05
aI3
asg20
(lp745
F0.05
aI3
ass((F2.25
F1.25
g16
tp746
(F1.75
F0.75
g16
tp747
tp748
(dp749
g8
(lp750
F0.15
aI2
ass(g313
(F0.25
F0.75
g16
tp751
tp752
(dp753
g18
(lp754
F0.99
aI1
asg47
(lp755
F0.05
aI3
asg20
(lp756
F0.05
aI3
ass(g100
(F1.25
F0.75
g10
tp757
tp758
(dp759
g28
(lp760
F0.15
aI4
ass(g275
(F1.25
F0.25
g10
tp761
tp762
(dp763
g28
(lp764
F0.15
aI4
ass(g333
(F1.25
F0.25
g10
tp765
tp766
(dp767
g18
(lp768
F0.99
aI1
asg47
(lp769
F0.05
aI3
asg20
(lp770
F0.05
aI3
ass(g55
(F0.25
F1.25
g10
tp771
tp772
(dp773
g18
(lp774
F0.005
aI1
asg20
(lp775
F0.9
aI3
ass(g280
(F1.25
F0.25
g10
tp776
tp777
(dp778
g18
(lp779
F0.005
aI1
asg47
(lp780
F0.9
aI3
ass(g217
(F2.25
F0.25
g10
tp781
tp782
(dp783
g18
(lp784
F0.005
aI1
asg47
(lp785
F0.9
aI3
ass(g270
(F0.75
F0.75
g1
tp786
tp787
(dp788
g47
(lp789
F0.05
aI3
asg20
(lp790
F0.05
aI3
ass(g158
(F1.75
F0.25
g12
tp791
tp792
(dp793
g28
(lp794
F0.15
aI4
ass(g171
(F0.25
F0.75
g1
tp795
tp796
(dp797
g18
(lp798
F0.005
aI1
asg47
(lp799
F0.9
aI3
ass(g362
(F2.25
F0.75
g1
tp800
tp801
(dp802
g28
(lp803
F0.225
aI4
ass(g308
(F1.25
F0.75
g12
tp804
tp805
(dp806
g28
(lp807
F0.225
aI4
ass(g36
(F0.75
F0.75
g16
tp808
tp809
(dp810
g8
(lp811
F0.15
aI2
ass(g730
(F0.75
F0.75
g10
tp812
tp813
(dp814
g8
(lp815
F0.15
aI2
ass((F0.25
F0.25
g16
tp816
(F0.25
F0.25
g10
tp817
tp818
(dp819
g47
(lp820
F0.05
aI3
asg20
(lp821
F0.05
aI3
ass(g256
(F1.75
F0.75
g1
tp822
tp823
(dp824
g18
(lp825
F0.005
aI1
asg47
(lp826
F0.9
aI3
ass(g22
(F0.75
F0.75
g1
tp827
tp828
(dp829
g8
(lp830
F0.15
aI2
ass((F0.75
F1.25
g1
tp831
(F1.25
F1.25
g1
tp832
tp833
(dp834
g28
(lp835
F0.7749999999999999
aI4
ass(g55
(F0.25
F1.25
g12
tp836
tp837
(dp838
g47
(lp839
F0.05
aI3
asg20
(lp840
F0.05
aI3
ass(g74
(F1.75
F0.25
g16
tp841
tp842
(dp843
g8
(lp844
F0.15
aI2
ass(g65
(F0.75
F0.75
g10
tp845
tp846
(dp847
g47
(lp848
F0.05
aI3
asg20
(lp849
F0.05
aI3
ass(g339
(F0.75
F0.25
g12
tp850
tp851
(dp852
g8
(lp853
F0.1
aI2
ass(g222
(F0.25
F0.75
g10
tp854
tp855
(dp856
g18
(lp857
F0.005
aI1
asg20
(lp858
F0.9
aI3
ass(g382
(F0.75
F0.75
g12
tp859
tp860
(dp861
g28
(lp862
F0.7
aI4
ass(g217
(F2.25
F0.25
g12
tp863
tp864
(dp865
g18
(lp866
F0.99
aI1
asg47
(lp867
F0.05
aI3
asg20
(lp868
F0.05
aI3
ass(g60
(F0.75
F1.25
g12
tp869
tp870
(dp871
g18
(lp872
F0.99
aI1
asg47
(lp873
F0.05
aI3
asg20
(lp874
F0.05
aI3
ass(g193
(F2.25
F0.25
g1
tp875
tp876
(dp877
g28
(lp878
F0.15
aI4
ass(g619
(F1.75
F0.25
g1
tp879
tp880
(dp881
g18
(lp882
F0.005
aI1
asg20
(lp883
F0.9
aI3
ass(g328
(F0.75
F0.75
g10
tp884
tp885
(dp886
g18
(lp887
F0.005
aI1
asg20
(lp888
F0.9
aI3
ass((F2.25
F1.25
g12
tp889
(F2.25
F1.25
g16
tp890
tp891
(dp892
g18
(lp893
F0.005
aI1
asg20
(lp894
F0.9
aI3
ass(g198
(F0.75
F1.25
g16
tp895
tp896
(dp897
g28
(lp898
F0.15
aI4
ass(g270
(F0.25
F1.25
g12
tp899
tp900
(dp901
g28
(lp902
F0.15
aI4
ass(g418
(F1.75
F0.25
g12
tp903
tp904
(dp905
g18
(lp906
F0.99
aI1
asg47
(lp907
F0.05
aI3
asg20
(lp908
F0.05
aI3
ass(g362
(F1.75
F1.25
g10
tp909
tp910
(dp911
g18
(lp912
F0.005
aI1
asg20
(lp913
F0.9
aI3
ass(g594
(F1.75
F1.25
g1
tp914
tp915
(dp916
g8
(lp917
F0.8500000000000001
aI2
ass(g345
(F2.25
F0.25
g10
tp918
tp919
(dp920
g47
(lp921
F0.05
aI3
asg20
(lp922
F0.05
aI3
ass(g328
(F0.25
F0.75
g1
tp923
tp924
(dp925
g8
(lp926
F0.8
aI2
ass(g313
(F0.25
F0.25
g16
tp927
tp928
(dp929
g8
(lp930
F0.8500000000000001
aI2
ass(g339
(F0.75
F0.75
g12
tp931
tp932
(dp933
g8
(lp934
F0.8
aI2
ass(g484
(F0.75
F0.75
g1
tp935
tp936
(dp937
g8
(lp938
F0.8
aI2
ass(g244
(F1.25
F1.25
g12
tp939
tp940
(dp941
g18
(lp942
F0.005
aI1
asg47
(lp943
F0.9
aI3
ass(g328
(F0.75
F0.75
g1
tp944
tp945
(dp946
g18
(lp947
F0.99
aI1
asg47
(lp948
F0.05
aI3
asg20
(lp949
F0.05
aI3
ass(g345
(F2.25
F0.75
g16
tp950
tp951
(dp952
g28
(lp953
F0.7749999999999999
aI4
ass(g746
(F2.25
F0.75
g16
tp954
tp955
(dp956
g8
(lp957
F0.8500000000000001
aI2
ass(g11
(F1.25
F0.75
g16
tp958
tp959
(dp960
g47
(lp961
F0.05
aI3
asg20
(lp962
F0.05
aI3
ass(g217
(F2.25
F0.25
g1
tp963
tp964
(dp965
g47
(lp966
F0.05
aI3
asg20
(lp967
F0.05
aI3
ass(g393
(F0.75
F0.75
g10
tp968
tp969
(dp970
g28
(lp971
F0.7
aI4
ass(g74
(F1.75
F1.25
g16
tp972
tp973
(dp974
g28
(lp975
F0.225
aI4
ass(g275
(F0.75
F0.75
g10
tp976
tp977
(dp978
g18
(lp979
F0.99
aI1
asg47
(lp980
F0.05
aI3
asg20
(lp981
F0.05
aI3
ass(g41
(F1.75
F0.75
g1
tp982
tp983
(dp984
g8
(lp985
F0.15
aI2
ass(g117
(F1.75
F1.25
g12
tp986
tp987
(dp988
g18
(lp989
F0.005
aI1
asg47
(lp990
F0.9
aI3
ass(g418
(F1.25
F0.75
g12
tp991
tp992
(dp993
g28
(lp994
F0.225
aI4
ass(g357
(F2.25
F0.75
g12
tp995
tp996
(dp997
g18
(lp998
F0.005
aI1
asg20
(lp999
F0.9
aI3
ass(g222
(F0.25
F0.75
g12
tp1000
tp1001
(dp1002
g47
(lp1003
F0.05
aI3
asg20
(lp1004
F0.05
aI3
ass(g2
(F2.25
F0.75
g12
tp1005
tp1006
(dp1007
g47
(lp1008
F0.05
aI3
asg20
(lp1009
F0.05
aI3
ass(g55
(F0.25
F1.25
g16
tp1010
tp1011
(dp1012
g18
(lp1013
F0.005
aI1
asg47
(lp1014
F0.9
aI3
ass(g36
(F0.25
F1.25
g12
tp1015
tp1016
(dp1017
g18
(lp1018
F0.005
aI1
asg47
(lp1019
F0.9
aI3
ass(g30
(F0.75
F1.25
g16
tp1020
tp1021
(dp1022
g18
(lp1023
F0.99
aI1
asg47
(lp1024
F0.05
aI3
asg20
(lp1025
F0.05
aI3
ass(g393
(F0.25
F0.75
g10
tp1026
tp1027
(dp1028
g28
(lp1029
F0.15
aI4
ass(g333
(F1.75
F0.75
g10
tp1030
tp1031
(dp1032
g8
(lp1033
F0.1
aI2
ass(g187
(F1.75
F0.25
g1
tp1034
tp1035
(dp1036
g18
(lp1037
F0.99
aI1
asg47
(lp1038
F0.05
aI3
asg20
(lp1039
F0.05
aI3
ass(g11
(F1.25
F0.25
g10
tp1040
tp1041
(dp1042
g28
(lp1043
F0.7
aI4
ass(g280
(F1.75
F0.25
g12
tp1044
tp1045
(dp1046
g8
(lp1047
F0.8500000000000001
aI2
ass(g158
(F2.25
F0.75
g10
tp1048
tp1049
(dp1050
g18
(lp1051
F0.005
aI1
asg47
(lp1052
F0.9
aI3
ass(g889
(F1.75
F1.25
g12
tp1053
tp1054
(dp1055
g28
(lp1056
F0.7749999999999999
aI4
ass(g275
(F0.75
F0.25
g10
tp1057
tp1058
(dp1059
g28
(lp1060
F0.7
aI4
ass(g60
(F1.25
F0.75
g12
tp1061
tp1062
(dp1063
g8
(lp1064
F0.15
aI2
ass(g594
(F1.75
F0.75
g1
tp1065
tp1066
(dp1067
g8
(lp1068
F0.15
aI2
ass(g198
(F1.75
F0.25
g16
tp1069
tp1070
(dp1071
g8
(lp1072
F0.1
aI2
ass(g270
(F0.25
F0.25
g12
tp1073
tp1074
(dp1075
g28
(lp1076
F0.15
aI4
ass(g275
(F1.25
F1.25
g10
tp1077
tp1078
(dp1079
g8
(lp1080
F0.1
aI2
ass(g151
(F2.25
F0.25
g16
tp1081
tp1082
(dp1083
g8
(lp1084
F0.1
aI2
ass(g746
(F2.25
F1.25
g12
tp1085
tp1086
(dp1087
g18
(lp1088
F0.005
aI1
asg47
(lp1089
F0.9
aI3
ass(g730
(F0.25
F0.25
g12
tp1090
tp1091
(dp1092
g18
(lp1093
F0.005
aI1
asg20
(lp1094
F0.9
aI3
ass(g393
(F0.75
F1.25
g16
tp1095
tp1096
(dp1097
g47
(lp1098
F0.05
aI3
asg20
(lp1099
F0.05
aI3
ass(g256
(F1.75
F0.75
g10
tp1100
tp1101
(dp1102
g18
(lp1103
F0.99
aI1
asg47
(lp1104
F0.05
aI3
asg20
(lp1105
F0.05
aI3
ass(g382
(F0.75
F0.25
g12
tp1106
tp1107
(dp1108
g28
(lp1109
F0.15
aI4
ass(g468
(F2.25
F0.75
g10
tp1110
tp1111
(dp1112
g28
(lp1113
F0.7749999999999999
aI4
ass(g187
(F1.25
F0.25
g1
tp1114
tp1115
(dp1116
g8
(lp1117
F0.8500000000000001
aI2
ass(g94
(F1.25
F0.25
g12
tp1118
tp1119
(dp1120
g47
(lp1121
F0.05
aI3
asg20
(lp1122
F0.05
aI3
ass(g122
(F1.25
F1.25
g12
tp1123
tp1124
(dp1125
g18
(lp1126
F0.005
aI1
asg20
(lp1127
F0.9
aI3
ass(g280
(F0.75
F0.25
g12
tp1128
tp1129
(dp1130
g28
(lp1131
F0.7749999999999999
aI4
ass(g313
(F0.75
F0.25
g16
tp1132
tp1133
(dp1134
g8
(lp1135
F0.15
aI2
ass(g144
(F2.25
F0.25
g12
tp1136
tp1137
(dp1138
g8
(lp1139
F0.1
aI2
ass(g468
(F1.75
F0.75
g10
tp1140
tp1141
(dp1142
g28
(lp1143
F0.225
aI4
ass(g313
(F0.75
F1.25
g16
tp1144
tp1145
(dp1146
g28
(lp1147
F0.225
aI4
ass(g222
(F0.25
F0.75
g16
tp1148
tp1149
(dp1150
g18
(lp1151
F0.005
aI1
asg47
(lp1152
F0.9
aI3
ass(g144
(F1.75
F0.75
g16
tp1153
tp1154
(dp1155
g18
(lp1156
F0.005
aI1
asg20
(lp1157
F0.9
aI3
ass(g393
(F0.75
F1.25
g12
tp1158
tp1159
(dp1160
g18
(lp1161
F0.005
aI1
asg20
(lp1162
F0.9
aI3
ass(g816
(F0.25
F0.75
g16
tp1163
tp1164
(dp1165
g28
(lp1166
F0.7749999999999999
aI4
ass(g270
(F0.75
F0.75
g10
tp1167
tp1168
(dp1169
g18
(lp1170
F0.005
aI1
asg47
(lp1171
F0.9
aI3
ass(g151
(F1.75
F0.75
g12
tp1172
tp1173
(dp1174
g18
(lp1175
F0.005
aI1
asg47
(lp1176
F0.9
aI3
ass(g270
(F1.25
F0.75
g12
tp1177
tp1178
(dp1179
g8
(lp1180
F0.8
aI2
ass(g527
(F0.25
F1.25
g12
tp1181
tp1182
(dp1183
g18
(lp1184
F0.99
aI1
asg47
(lp1185
F0.05
aI3
asg20
(lp1186
F0.05
aI3
ass(g382
(F1.75
F0.75
g12
tp1187
tp1188
(dp1189
g8
(lp1190
F0.8
aI2
ass(g139
(F1.25
F0.75
g10
tp1191
tp1192
(dp1193
g8
(lp1194
F0.1
aI2
ass(g275
(F0.75
F0.75
g12
tp1195
tp1196
(dp1197
g18
(lp1198
F0.005
aI1
asg20
(lp1199
F0.9
aI3
ass(g158
(F1.75
F0.75
g12
tp1200
tp1201
(dp1202
g28
(lp1203
F0.7
aI4
ass(g176
(F1.25
F0.75
g16
tp1204
tp1205
(dp1206
g28
(lp1207
F0.7
aI4
ass(g604
(F0.75
F0.25
g12
tp1208
tp1209
(dp1210
g18
(lp1211
F0.005
aI1
asg47
(lp1212
F0.9
aI3
ass(g280
(F1.75
F0.75
g12
tp1213
tp1214
(dp1215
g8
(lp1216
F0.15
aI2
ass(g117
(F2.25
F0.75
g16
tp1217
tp1218
(dp1219
g8
(lp1220
F0.1
aI2
ass(g60
(F0.25
F0.75
g12
tp1221
tp1222
(dp1223
g28
(lp1224
F0.225
aI4
ass(g362
(F1.75
F1.25
g12
tp1225
tp1226
(dp1227
g47
(lp1228
F0.05
aI3
asg20
(lp1229
F0.05
aI3
ass(g308
(F1.25
F1.25
g12
tp1230
tp1231
(dp1232
g28
(lp1233
F0.7749999999999999
aI4
ass(g94
(F1.25
F0.25
g10
tp1234
tp1235
(dp1236
g18
(lp1237
F0.005
aI1
asg20
(lp1238
F0.9
aI3
ass(g193
(F1.25
F1.25
g1
tp1239
tp1240
(dp1241
g8
(lp1242
F0.1
aI2
ass(g484
(F1.75
F1.25
g1
tp1243
tp1244
(dp1245
g28
(lp1246
F0.15
aI4
ass(g301
(F0.25
F0.75
g10
tp1247
tp1248
(dp1249
g28
(lp1250
F0.7749999999999999
aI4
ass(g256
(F1.75
F1.25
g10
tp1251
tp1252
(dp1253
g8
(lp1254
F0.8
aI2
ass(g176
(F1.25
F0.25
g1
tp1255
tp1256
(dp1257
g18
(lp1258
F0.005
aI1
asg20
(lp1259
F0.9
aI3
ass(g484
(F0.75
F1.25
g1
tp1260
tp1261
(dp1262
g8
(lp1263
F0.1
aI2
ass(g187
(F1.75
F0.25
g12
tp1264
tp1265
(dp1266
g47
(lp1267
F0.05
aI3
asg20
(lp1268
F0.05
aI3
ass(g176
(F1.75
F0.75
g16
tp1269
tp1270
(dp1271
g28
(lp1272
F0.15
aI4
ass(g345
(F1.75
F0.75
g16
tp1273
tp1274
(dp1275
g28
(lp1276
F0.225
aI4
ass(g831
(F0.75
F1.25
g12
tp1277
tp1278
(dp1279
g47
(lp1280
F0.05
aI3
asg20
(lp1281
F0.05
aI3
ass(g81
(F0.25
F0.25
g1
tp1282
tp1283
(dp1284
g18
(lp1285
F0.99
aI1
asg47
(lp1286
F0.05
aI3
asg20
(lp1287
F0.05
aI3
ass(g193
(F1.25
F0.25
g1
tp1288
tp1289
(dp1290
g8
(lp1291
F0.1
aI2
ass(g151
(F1.75
F1.25
g16
tp1292
tp1293
(dp1294
g28
(lp1295
F0.7
aI4
ass(g502
(F1.25
F0.75
g10
tp1296
tp1297
(dp1298
g8
(lp1299
F0.1
aI2
ass(g889
(F2.25
F1.25
g1
tp1300
tp1301
(dp1302
g47
(lp1303
F0.05
aI3
asg20
(lp1304
F0.05
aI3
ass(g198
(F1.25
F0.25
g16
tp1305
tp1306
(dp1307
g8
(lp1308
F0.8
aI2
ass(g339
(F0.25
F0.75
g1
tp1309
tp1310
(dp1311
g47
(lp1312
F0.05
aI3
asg20
(lp1313
F0.05
aI3
ass(g382
(F1.75
F0.25
g12
tp1314
tp1315
(dp1316
g8
(lp1317
F0.1
aI2
ass(g730
(F0.25
F0.75
g10
tp1318
tp1319
(dp1320
g8
(lp1321
F0.8500000000000001
aI2
ass(g81
(F0.75
F0.75
g1
tp1322
tp1323
(dp1324
g28
(lp1325
F0.225
aI4
ass(g889
(F2.25
F1.25
g12
tp1326
tp1327
(dp1328
g18
(lp1329
F0.99
aI1
asg47
(lp1330
F0.05
aI3
asg20
(lp1331
F0.05
aI3
ass(g176
(F1.25
F0.25
g12
tp1332
tp1333
(dp1334
g18
(lp1335
F0.005
aI1
asg47
(lp1336
F0.9
aI3
ass(g345
(F2.25
F0.25
g16
tp1337
tp1338
(dp1339
g18
(lp1340
F0.99
aI1
asg47
(lp1341
F0.05
aI3
asg20
(lp1342
F0.05
aI3
ass(g94
(F1.25
F0.25
g1
tp1343
tp1344
(dp1345
g18
(lp1346
F0.99
aI1
asg47
(lp1347
F0.05
aI3
asg20
(lp1348
F0.05
aI3
ass(g484
(F0.75
F0.25
g1
tp1349
tp1350
(dp1351
g8
(lp1352
F0.1
aI2
ass(g87
(F0.25
F0.25
g10
tp1353
tp1354
(dp1355
g18
(lp1356
F0.005
aI1
asg47
(lp1357
F0.9
aI3
ass(g502
(F0.75
F0.75
g10
tp1358
tp1359
(dp1360
g8
(lp1361
F0.8
aI2
ass(g502
(F0.75
F0.25
g10
tp1362
tp1363
(dp1364
g18
(lp1365
F0.99
aI1
asg47
(lp1366
F0.05
aI3
asg20
(lp1367
F0.05
aI3
ass(g244
(F1.25
F0.75
g16
tp1368
tp1369
(dp1370
g8
(lp1371
F0.8
aI2
ass(g60
(F0.75
F1.25
g1
tp1372
tp1373
(dp1374
g47
(lp1375
F0.05
aI3
asg20
(lp1376
F0.05
aI3
ass(g94
(F0.75
F0.25
g1
tp1377
tp1378
(dp1379
g8
(lp1380
F0.8500000000000001
aI2
ass(g30
(F0.75
F0.75
g16
tp1381
tp1382
(dp1383
g8
(lp1384
F0.8
aI2
ass(g275
(F0.75
F1.25
g10
tp1385
tp1386
(dp1387
g8
(lp1388
F0.8
aI2
ass(g484
(F1.25
F0.75
g12
tp1389
tp1390
(dp1391
g47
(lp1392
F0.05
aI3
asg20
(lp1393
F0.05
aI3
ass(g11
(F1.25
F0.75
g1
tp1394
tp1395
(dp1396
g18
(lp1397
F0.005
aI1
asg47
(lp1398
F0.9
aI3
ass(g107
(F0.25
F0.75
g1
tp1399
tp1400
(dp1401
g8
(lp1402
F0.15
aI2
ass(g36
(F0.25
F1.25
g1
tp1403
tp1404
(dp1405
g18
(lp1406
F0.005
aI1
asg20
(lp1407
F0.9
aI3
ass(g107
(F1.25
F0.75
g1
tp1408
tp1409
(dp1410
g28
(lp1411
F0.225
aI4
ass(g604
(F0.25
F0.75
g16
tp1412
tp1413
(dp1414
g28
(lp1415
F0.15
aI4
ass(g382
(F0.75
F1.25
g12
tp1416
tp1417
(dp1418
g28
(lp1419
F0.15
aI4
ass(g107
(F0.75
F0.25
g12
tp1420
tp1421
(dp1422
g47
(lp1423
F0.05
aI3
asg20
(lp1424
F0.05
aI3
ass(g831
(F0.75
F1.25
g16
tp1425
tp1426
(dp1427
g18
(lp1428
F0.005
aI1
asg47
(lp1429
F0.9
aI3
ass(g60
(F0.25
F1.25
g12
tp1430
tp1431
(dp1432
g28
(lp1433
F0.7749999999999999
aI4
ass(g171
(F0.25
F0.25
g10
tp1434
tp1435
(dp1436
g28
(lp1437
F0.7749999999999999
aI4
ass(g165
(F1.25
F1.25
g1
tp1438
tp1439
(dp1440
g47
(lp1441
F0.05
aI3
asg20
(lp1442
F0.05
aI3
ass(g222
(F0.75
F1.25
g1
tp1443
tp1444
(dp1445
g28
(lp1446
F0.15
aI4
ass(g65
(F0.75
F0.75
g12
tp1447
tp1448
(dp1449
g18
(lp1450
F0.005
aI1
asg47
(lp1451
F0.9
aI3
ass(g187
(F2.25
F0.75
g1
tp1452
tp1453
(dp1454
g28
(lp1455
F0.225
aI4
ass(g30
(F0.25
F0.75
g16
tp1456
tp1457
(dp1458
g8
(lp1459
F0.1
aI2
ass(g418
(F2.25
F0.75
g12
tp1460
tp1461
(dp1462
g8
(lp1463
F0.15
aI2
ass(g256
(F2.25
F0.25
g10
tp1464
tp1465
(dp1466
g28
(lp1467
F0.15
aI4
ass(g730
(F0.25
F0.25
g10
tp1468
tp1469
(dp1470
g18
(lp1471
F0.99
aI1
asg47
(lp1472
F0.05
aI3
asg20
(lp1473
F0.05
aI3
ass(g2
(F2.25
F0.75
g16
tp1474
tp1475
(dp1476
g18
(lp1477
F0.005
aI1
asg47
(lp1478
F0.9
aI3
ass(g816
(F0.25
F0.25
g1
tp1479
tp1480
(dp1481
g18
(lp1482
F0.005
aI1
asg20
(lp1483
F0.9
aI3
ass(g345
(F2.25
F0.25
g1
tp1484
tp1485
(dp1486
g18
(lp1487
F0.005
aI1
asg20
(lp1488
F0.9
aI3
ass(g339
(F0.25
F0.75
g12
tp1489
tp1490
(dp1491
g18
(lp1492
F0.99
aI1
asg47
(lp1493
F0.05
aI3
asg20
(lp1494
F0.05
aI3
ass(g60
(F0.75
F1.25
g10
tp1495
tp1496
(dp1497
g18
(lp1498
F0.005
aI1
asg47
(lp1499
F0.9
aI3
ass(g11
(F1.75
F1.25
g10
tp1500
tp1501
(dp1502
g8
(lp1503
F0.1
aI2
ass(g256
(F1.25
F0.25
g10
tp1504
tp1505
(dp1506
g28
(lp1507
F0.15
aI4
ass(g831
(F0.75
F1.25
g10
tp1508
tp1509
(dp1510
g18
(lp1511
F0.005
aI1
asg20
(lp1512
F0.9
aI3
ass(g193
(F1.75
F0.75
g1
tp1513
tp1514
(dp1515
g18
(lp1516
F0.99
aI1
asg47
(lp1517
F0.05
aI3
asg20
(lp1518
F0.05
aI3
ass(g831
(F1.25
F0.75
g1
tp1519
tp1520
(dp1521
g28
(lp1522
F0.225
aI4
ass(g139
(F1.75
F0.25
g12
tp1523
tp1524
(dp1525
g18
(lp1526
F0.005
aI1
asg20
(lp1527
F0.9
aI3
ass(g65
(F0.75
F0.75
g1
tp1528
tp1529
(dp1530
g18
(lp1531
F0.005
aI1
asg20
(lp1532
F0.9
aI3
ass(g328
(F0.25
F1.25
g1
tp1533
tp1534
(dp1535
g8
(lp1536
F0.1
aI2
ass(g418
(F1.75
F0.25
g16
tp1537
tp1538
(dp1539
g18
(lp1540
F0.005
aI1
asg20
(lp1541
F0.9
aI3
ass(g193
(F1.25
F0.75
g1
tp1542
tp1543
(dp1544
g8
(lp1545
F0.8
aI2
ass(g816
(F0.75
F0.75
g16
tp1546
tp1547
(dp1548
g28
(lp1549
F0.225
aI4
ass(g382
(F1.25
F0.75
g12
tp1550
tp1551
(dp1552
g18
(lp1553
F0.99
aI1
asg47
(lp1554
F0.05
aI3
asg20
(lp1555
F0.05
aI3
ass(g275
(F0.25
F1.25
g10
tp1556
tp1557
(dp1558
g8
(lp1559
F0.1
aI2
ass(g816
(F0.25
F0.25
g12
tp1560
tp1561
(dp1562
g18
(lp1563
F0.005
aI1
asg47
(lp1564
F0.9
aI3
ass(g165
(F1.75
F1.25
g12
tp1565
tp1566
(dp1567
g8
(lp1568
F0.8500000000000001
aI2
ass(g333
(F1.25
F0.75
g10
tp1569
tp1570
(dp1571
g8
(lp1572
F0.8
aI2
ass(g187
(F1.25
F0.75
g1
tp1573
tp1574
(dp1575
g8
(lp1576
F0.15
aI2
ass(g594
(F2.25
F1.25
g10
tp1577
tp1578
(dp1579
g18
(lp1580
F0.005
aI1
asg20
(lp1581
F0.9
aI3
ass(g151
(F1.75
F0.75
g1
tp1582
tp1583
(dp1584
g18
(lp1585
F0.005
aI1
asg20
(lp1586
F0.9
aI3
ass(g604
(F0.75
F0.25
g10
tp1587
tp1588
(dp1589
g47
(lp1590
F0.05
aI3
asg20
(lp1591
F0.05
aI3
ass(g527
(F0.25
F1.25
g10
tp1592
tp1593
(dp1594
g18
(lp1595
F0.005
aI1
asg47
(lp1596
F0.9
aI3
ass(g382
(F1.25
F0.75
g16
tp1597
tp1598
(dp1599
g18
(lp1600
F0.005
aI1
asg20
(lp1601
F0.9
aI3
ass(g144
(F1.75
F0.75
g1
tp1602
tp1603
(dp1604
g47
(lp1605
F0.05
aI3
asg20
(lp1606
F0.05
aI3
ass(g831
(F0.25
F0.75
g1
tp1607
tp1608
(dp1609
g8
(lp1610
F0.15
aI2
ass(g165
(F0.75
F1.25
g12
tp1611
tp1612
(dp1613
g28
(lp1614
F0.7749999999999999
aI4
ass(g831
(F0.25
F1.25
g1
tp1615
tp1616
(dp1617
g8
(lp1618
F0.8500000000000001
aI2
ass(g357
(F2.25
F1.25
g10
tp1619
tp1620
(dp1621
g8
(lp1622
F0.8500000000000001
aI2
ass(g286
(F1.75
F0.75
g10
tp1623
tp1624
(dp1625
g8
(lp1626
F0.15
aI2
ass(g313
(F0.25
F0.75
g10
tp1627
tp1628
(dp1629
g47
(lp1630
F0.05
aI3
asg20
(lp1631
F0.05
aI3
ass(g158
(F2.25
F0.75
g16
tp1632
tp1633
(dp1634
g18
(lp1635
F0.005
aI1
asg20
(lp1636
F0.9
aI3
ass(g144
(F1.75
F0.75
g10
tp1637
tp1638
(dp1639
g18
(lp1640
F0.005
aI1
asg47
(lp1641
F0.9
aI3
ass(g100
(F1.75
F1.25
g16
tp1642
tp1643
(dp1644
g47
(lp1645
F0.05
aI3
asg20
(lp1646
F0.05
aI3
ass(g275
(F0.75
F0.75
g1
tp1647
tp1648
(dp1649
g18
(lp1650
F0.005
aI1
asg47
(lp1651
F0.9
aI3
ass(g117
(F1.75
F1.25
g10
tp1652
tp1653
(dp1654
g47
(lp1655
F0.05
aI3
asg20
(lp1656
F0.05
aI3
ass(g171
(F0.25
F0.75
g16
tp1657
tp1658
(dp1659
g47
(lp1660
F0.05
aI3
asg20
(lp1661
F0.05
aI3
ass(g527
(F0.75
F1.25
g12
tp1662
tp1663
(dp1664
g8
(lp1665
F0.8500000000000001
aI2
ass(g100
(F1.75
F0.75
g10
tp1666
tp1667
(dp1668
g28
(lp1669
F0.7
aI4
ass(g362
(F1.25
F1.25
g1
tp1670
tp1671
(dp1672
g8
(lp1673
F0.8500000000000001
aI2
ass(g831
(F0.75
F1.25
g1
tp1674
tp1675
(dp1676
g18
(lp1677
F0.99
aI1
asg47
(lp1678
F0.05
aI3
asg20
(lp1679
F0.05
aI3
ass(g604
(F0.75
F0.25
g16
tp1680
tp1681
(dp1682
g18
(lp1683
F0.99
aI1
asg47
(lp1684
F0.05
aI3
asg20
(lp1685
F0.05
aI3
ass(g280
(F1.25
F0.25
g12
tp1686
tp1687
(dp1688
g18
(lp1689
F0.99
aI1
asg47
(lp1690
F0.05
aI3
asg20
(lp1691
F0.05
aI3
ass(g217
(F2.25
F0.25
g16
tp1692
tp1693
(dp1694
g18
(lp1695
F0.005
aI1
asg20
(lp1696
F0.9
aI3
ass(g36
(F0.25
F1.25
g16
tp1697
tp1698
(dp1699
g18
(lp1700
F0.99
aI1
asg47
(lp1701
F0.05
aI3
asg20
(lp1702
F0.05
aI3
ass(g527
(F0.75
F0.75
g12
tp1703
tp1704
(dp1705
g8
(lp1706
F0.15
aI2
ass(g193
(F1.75
F0.75
g12
tp1707
tp1708
(dp1709
g47
(lp1710
F0.05
aI3
asg20
(lp1711
F0.05
aI3
ass(g256
(F2.25
F1.25
g10
tp1712
tp1713
(dp1714
g8
(lp1715
F0.1
aI2
ass(g730
(F0.25
F0.25
g16
tp1716
tp1717
(dp1718
g47
(lp1719
F0.05
aI3
asg20
(lp1720
F0.05
aI3
ass(g484
(F1.75
F0.25
g1
tp1721
tp1722
(dp1723
g28
(lp1724
F0.15
aI4
ass(g527
(F0.25
F1.25
g1
tp1725
tp1726
(dp1727
g47
(lp1728
F0.05
aI3
asg20
(lp1729
F0.05
aI3
ass(g604
(F0.75
F0.75
g16
tp1730
tp1731
(dp1732
g28
(lp1733
F0.7
aI4
ass(g286
(F2.25
F0.25
g10
tp1734
tp1735
(dp1736
g18
(lp1737
F0.99
aI1
asg47
(lp1738
F0.05
aI3
asg20
(lp1739
F0.05
aI3
ass(g158
(F1.75
F1.25
g12
tp1740
tp1741
(dp1742
g28
(lp1743
F0.15
aI4
ass(g81
(F0.25
F0.25
g12
tp1744
tp1745
(dp1746
g47
(lp1747
F0.05
aI3
asg20
(lp1748
F0.05
aI3
ass(g144
(F1.25
F1.25
g12
tp1749
tp1750
(dp1751
g28
(lp1752
F0.15
aI4
ass(g41
(F1.75
F0.25
g1
tp1753
tp1754
(dp1755
g8
(lp1756
F0.8500000000000001
aI2
ass(g2
(F2.25
F0.75
g1
tp1757
tp1758
(dp1759
g18
(lp1760
F0.99
aI1
asg47
(lp1761
F0.05
aI3
asg20
(lp1762
F0.05
aI3
ass(g889
(F1.75
F0.75
g12
tp1763
tp1764
(dp1765
g28
(lp1766
F0.225
aI4
ass(g139
(F1.75
F0.25
g10
tp1767
tp1768
(dp1769
g18
(lp1770
F0.99
aI1
asg47
(lp1771
F0.05
aI3
asg20
(lp1772
F0.05
aI3
ass(g49
(F0.25
F0.25
g12
tp1773
tp1774
(dp1775
g28
(lp1776
F0.7749999999999999
aI4
ass(g308
(F1.75
F1.25
g12
tp1777
tp1778
(dp1779
g18
(lp1780
F0.99
aI1
asg47
(lp1781
F0.05
aI3
asg20
(lp1782
F0.05
aI3
ass(g94
(F0.75
F0.75
g1
tp1783
tp1784
(dp1785
g8
(lp1786
F0.15
aI2
ass(g619
(F1.75
F0.25
g10
tp1787
tp1788
(dp1789
g47
(lp1790
F0.05
aI3
asg20
(lp1791
F0.05
aI3
ass(g619
(F1.25
F0.75
g16
tp1792
tp1793
(dp1794
g28
(lp1795
F0.15
aI4
ass(g270
(F1.25
F0.25
g12
tp1796
tp1797
(dp1798
g8
(lp1799
F0.1
aI2
ass(g74
(F2.25
F1.25
g16
tp1800
tp1801
(dp1802
g28
(lp1803
F0.7749999999999999
aI4
ass(g22
(F1.75
F1.25
g1
tp1804
tp1805
(dp1806
g28
(lp1807
F0.7749999999999999
aI4
ass(g81
(F0.75
F0.25
g1
tp1808
tp1809
(dp1810
g28
(lp1811
F0.7749999999999999
aI4
ass(g139
(F1.75
F0.25
g1
tp1812
tp1813
(dp1814
g18
(lp1815
F0.005
aI1
asg47
(lp1816
F0.9
aI3
ass(g256
(F1.25
F1.25
g10
tp1817
tp1818
(dp1819
g8
(lp1820
F0.1
aI2
ass(g193
(F2.25
F1.25
g1
tp1821
tp1822
(dp1823
g28
(lp1824
F0.15
aI4
ass(g49
(F0.25
F0.75
g12
tp1825
tp1826
(dp1827
g28
(lp1828
F0.225
aI4
ass(g362
(F1.75
F1.25
g1
tp1829
tp1830
(dp1831
g18
(lp1832
F0.99
aI1
asg47
(lp1833
F0.05
aI3
asg20
(lp1834
F0.05
aI3
ass(g357
(F2.25
F0.75
g1
tp1835
tp1836
(dp1837
g18
(lp1838
F0.005
aI1
asg47
(lp1839
F0.9
aI3
ass(g502
(F0.75
F0.25
g12
tp1840
tp1841
(dp1842
g18
(lp1843
F0.005
aI1
asg20
(lp1844
F0.9
aI3
ass(g746
(F2.25
F1.25
g1
tp1845
tp1846
(dp1847
g18
(lp1848
F0.005
aI1
asg20
(lp1849
F0.9
aI3
ass(g270
(F0.75
F0.75
g16
tp1850
tp1851
(dp1852
g18
(lp1853
F0.005
aI1
asg20
(lp1854
F0.9
aI3
ass(g87
(F0.75
F0.25
g12
tp1855
tp1856
(dp1857
g8
(lp1858
F0.8500000000000001
aI2
ass(g144
(F1.25
F0.75
g12
tp1859
tp1860
(dp1861
g28
(lp1862
F0.7
aI4
ass(g244
(F0.75
F0.75
g16
tp1863
tp1864
(dp1865
g8
(lp1866
F0.1
aI2
ass(g308
(F2.25
F0.75
g12
tp1867
tp1868
(dp1869
g8
(lp1870
F0.15
aI2
ass(g41
(F2.25
F0.25
g12
tp1871
tp1872
(dp1873
g47
(lp1874
F0.05
aI3
asg20
(lp1875
F0.05
aI3
ass(g619
(F1.75
F0.25
g12
tp1876
tp1877
(dp1878
g18
(lp1879
F0.005
aI1
asg47
(lp1880
F0.9
aI3
ass(g418
(F1.75
F0.25
g10
tp1881
tp1882
(dp1883
g18
(lp1884
F0.005
aI1
asg47
(lp1885
F0.9
aI3
ass(g222
(F0.75
F0.75
g1
tp1886
tp1887
(dp1888
g28
(lp1889
F0.7
aI4
ass(g746
(F2.25
F1.25
g10
tp1890
tp1891
(dp1892
g47
(lp1893
F0.05
aI3
asg20
(lp1894
F0.05
aI3
ass(g171
(F0.75
F0.25
g10
tp1895
tp1896
(dp1897
g28
(lp1898
F0.225
aI4
ass(g87
(F0.25
F0.25
g1
tp1899
tp1900
(dp1901
g47
(lp1902
F0.05
aI3
asg20
(lp1903
F0.05
aI3
ass(g619
(F1.75
F0.75
g16
tp1904
tp1905
(dp1906
g28
(lp1907
F0.7
aI4
ass(g11
(F1.75
F0.25
g10
tp1908
tp1909
(dp1910
g28
(lp1911
F0.15
aI4
ass(g468
(F2.25
F1.25
g1
tp1912
tp1913
(dp1914
g18
(lp1915
F0.005
aI1
asg47
(lp1916
F0.9
aI3
ass(g74
(F2.25
F0.75
g1
tp1917
tp1918
(dp1919
g18
(lp1920
F0.005
aI1
asg20
(lp1921
F0.9
aI3
ass(g171
(F0.25
F0.75
g10
tp1922
tp1923
(dp1924
g18
(lp1925
F0.99
aI1
asg47
(lp1926
F0.05
aI3
asg20
(lp1927
F0.05
aI3
ass(g11
(F0.75
F1.25
g10
tp1928
tp1929
(dp1930
g8
(lp1931
F0.1
aI2
ass(g122
(F1.25
F0.75
g10
tp1932
tp1933
(dp1934
g28
(lp1935
F0.7
aI4
ass(g144
(F2.25
F1.25
g12
tp1936
tp1937
(dp1938
g8
(lp1939
F0.1
aI2
ass(g393
(F0.75
F1.25
g10
tp1940
tp1941
(dp1942
g18
(lp1943
F0.99
aI1
asg47
(lp1944
F0.05
aI3
asg20
(lp1945
F0.05
aI3
ass(g286
(F2.25
F0.25
g12
tp1946
tp1947
(dp1948
g18
(lp1949
F0.005
aI1
asg20
(lp1950
F0.9
aI3
ass(g357
(F2.25
F0.75
g10
tp1951
tp1952
(dp1953
g18
(lp1954
F0.99
aI1
asg47
(lp1955
F0.05
aI3
asg20
(lp1956
F0.05
aI3
ass(g333
(F1.25
F0.25
g1
tp1957
tp1958
(dp1959
g18
(lp1960
F0.005
aI1
asg47
(lp1961
F0.9
aI3
ass(g313
(F0.25
F0.75
g1
tp1962
tp1963
(dp1964
g18
(lp1965
F0.005
aI1
asg20
(lp1966
F0.9
aI3
ass(g502
(F0.75
F0.25
g16
tp1967
tp1968
(dp1969
g47
(lp1970
F0.05
aI3
asg20
(lp1971
F0.05
aI3
ass(g313
(F0.25
F1.25
g16
tp1972
tp1973
(dp1974
g28
(lp1975
F0.7749999999999999
aI4
ass(g49
(F1.25
F0.25
g12
tp1976
tp1977
(dp1978
g8
(lp1979
F0.8500000000000001
aI2
ass(g333
(F1.25
F0.25
g12
tp1980
tp1981
(dp1982
g18
(lp1983
F0.005
aI1
asg20
(lp1984
F0.9
aI3
ass(g198
(F1.75
F1.25
g16
tp1985
tp1986
(dp1987
g28
(lp1988
F0.15
aI4
ass(g117
(F1.75
F1.25
g1
tp1989
tp1990
(dp1991
g18
(lp1992
F0.005
aI1
asg20
(lp1993
F0.9
aI3
ass(g484
(F1.25
F0.75
g1
tp1994
tp1995
(dp1996
g18
(lp1997
F0.99
aI1
asg47
(lp1998
F0.05
aI3
asg20
(lp1999
F0.05
aI3
ass(g55
(F0.25
F1.25
g1
tp2000
tp2001
(dp2002
g18
(lp2003
F0.99
aI1
asg47
(lp2004
F0.05
aI3
asg20
(lp2005
F0.05
aI3
ass(g418
(F1.75
F0.25
g1
tp2006
tp2007
(dp2008
g47
(lp2009
F0.05
aI3
asg20
(lp2010
F0.05
aI3
ass(g816
(F0.25
F0.25
g16
tp2011
tp2012
(dp2013
g18
(lp2014
F0.99
aI1
asg47
(lp2015
F0.05
aI3
asg20
(lp2016
F0.05
aI3
ass(g328
(F0.25
F0.25
g1
tp2017
tp2018
(dp2019
g8
(lp2020
F0.1
aI2
ass(g30
(F0.75
F1.25
g10
tp2021
tp2022
(dp2023
g47
(lp2024
F0.05
aI3
asg20
(lp2025
F0.05
aI3
ass(g357
(F2.25
F0.75
g16
tp2026
tp2027
(dp2028
g47
(lp2029
F0.05
aI3
asg20
(lp2030
F0.05
aI3
ass(g139
(F2.25
F0.75
g10
tp2031
tp2032
(dp2033
g8
(lp2034
F0.1
aI2
ass(g22
(F1.25
F1.25
g16
tp2035
tp2036
(dp2037
g18
(lp2038
F0.005
aI1
asg47
(lp2039
F0.9
aI3
ass(g328
(F1.25
F0.25
g1
tp2040
tp2041
(dp2042
g28
(lp2043
F0.15
aI4
ass(g100
(F2.25
F0.75
g10
tp2044
tp2045
(dp2046
g28
(lp2047
F0.15
aI4
ass(g65
(F0.75
F0.75
g16
tp2048
tp2049
(dp2050
g18
(lp2051
F0.99
aI1
asg47
(lp2052
F0.05
aI3
asg20
(lp2053
F0.05
aI3
ass(g122
(F1.25
F1.25
g10
tp2054
tp2055
(dp2056
g18
(lp2057
F0.99
aI1
asg47
(lp2058
F0.05
aI3
asg20
(lp2059
F0.05
aI3
ass(g81
(F0.25
F0.25
g16
tp2060
tp2061
(dp2062
g18
(lp2063
F0.005
aI1
asg47
(lp2064
F0.9
aI3
ass(g94
(F1.75
F0.25
g1
tp2065
tp2066
(dp2067
g28
(lp2068
F0.7749999999999999
aI4
ass(g176
(F0.75
F0.75
g16
tp2069
tp2070
(dp2071
g28
(lp2072
F0.15
aI4
ass(g619
(F2.25
F0.75
g16
tp2073
tp2074
(dp2075
g28
(lp2076
F0.15
aI4
ass(g328
(F0.75
F0.75
g12
tp2077
tp2078
(dp2079
g47
(lp2080
F0.05
aI3
asg20
(lp2081
F0.05
aI3
ass(g889
(F2.25
F1.25
g10
tp2082
tp2083
(dp2084
g18
(lp2085
F0.005
aI1
asg47
(lp2086
F0.9
aI3
ass(g382
(F1.75
F1.25
g12
tp2087
tp2088
(dp2089
g8
(lp2090
F0.1
aI2
ass(g308
(F1.75
F1.25
g10
tp2091
tp2092
(dp2093
g18
(lp2094
F0.005
aI1
asg47
(lp2095
F0.9
aI3
ass(g256
(F1.75
F0.25
g10
tp2096
tp2097
(dp2098
g28
(lp2099
F0.7
aI4
ass(g746
(F2.25
F1.25
g16
tp2100
tp2101
(dp2102
g18
(lp2103
F0.99
aI1
asg47
(lp2104
F0.05
aI3
asg20
(lp2105
F0.05
aI3
ass(g222
(F0.75
F0.25
g1
tp2106
tp2107
(dp2108
g28
(lp2109
F0.15
aI4
ass(g301
(F0.25
F1.25
g12
tp2110
tp2111
(dp2112
g18
(lp2113
F0.005
aI1
asg20
(lp2114
F0.9
aI3
ass(g87
(F0.25
F0.25
g16
tp2115
tp2116
(dp2117
g18
(lp2118
F0.005
aI1
asg20
(lp2119
F0.9
aI3
ass(g333
(F0.75
F0.75
g10
tp2120
tp2121
(dp2122
g8
(lp2123
F0.1
aI2
ass(g270
(F0.75
F0.75
g12
tp2124
tp2125
(dp2126
g18
(lp2127
F0.99
aI1
asg47
(lp2128
F0.05
aI3
asg20
(lp2129
F0.05
aI3
ass(g484
(F1.25
F0.75
g16
tp2130
tp2131
(dp2132
g18
(lp2133
F0.005
aI1
asg47
(lp2134
F0.9
aI3
ass(g328
(F0.75
F0.75
g16
tp2135
tp2136
(dp2137
g18
(lp2138
F0.005
aI1
asg47
(lp2139
F0.9
aI3
ass(g107
(F0.25
F0.25
g1
tp2140
tp2141
(dp2142
g8
(lp2143
F0.8500000000000001
aI2
ass(g151
(F1.75
F0.75
g10
tp2144
tp2145
(dp2146
g47
(lp2147
F0.05
aI3
asg20
(lp2148
F0.05
aI3
ass(g165
(F1.75
F0.75
g12
tp2149
tp2150
(dp2151
g8
(lp2152
F0.15
aI2
ass(g418
(F2.25
F0.25
g12
tp2153
tp2154
(dp2155
g8
(lp2156
F0.8500000000000001
aI2
ass(g151
(F2.25
F1.25
g16
tp2157
tp2158
(dp2159
g28
(lp2160
F0.15
aI4
ass(g244
(F1.75
F0.75
g16
tp2161
tp2162
(dp2163
g8
(lp2164
F0.1
aI2
ass(g49
(F0.75
F0.25
g16
tp2165
tp2166
(dp2167
g18
(lp2168
F0.005
aI1
asg20
(lp2169
F0.9
aI3
ass(g11
(F1.25
F1.25
g10
tp2170
tp2171
(dp2172
g8
(lp2173
F0.8
aI2
ass(g65
(F0.25
F1.25
g16
tp2174
tp2175
(dp2176
g28
(lp2177
F0.15
aI4
ass(g122
(F0.75
F0.75
g10
tp2178
tp2179
(dp2180
g28
(lp2181
F0.15
aI4
ass(g286
(F2.25
F0.25
g1
tp2182
tp2183
(dp2184
g18
(lp2185
F0.005
aI1
asg47
(lp2186
F0.9
aI3
ass(g286
(F2.25
F0.75
g10
tp2187
tp2188
(dp2189
g8
(lp2190
F0.8500000000000001
aI2
ass(g468
(F2.25
F1.25
g16
tp2191
tp2192
(dp2193
g47
(lp2194
F0.05
aI3
asg20
(lp2195
F0.05
aI3
ass(g151
(F1.25
F1.25
g16
tp2196
tp2197
(dp2198
g28
(lp2199
F0.15
aI4
ass.