((lp0
((F0.25
F0.25
S'E'
p1
tp2
c__builtin__
frozenset
p3
((lp4
tp5
Rp6
I0
tp7
a((F0.75
F0.25
g1
tp8
g6
I0
tp9
a((F1.25
F0.25
g1
tp10
g6
I0
tp11
a((F1.75
F0.25
g1
tp12
g6
I0
tp13
a((F2.25
F0.25
g1
tp14
g3
((lp15
S'base1'
p16
aS'base'
p17
atp18
Rp19
I0
tp20
a((F2.25
F0.25
S'N'
p21
tp22
g19
I1
tp23
a((F2.25
F0.75
g21
tp24
g6
I1
tp25
a((F2.25
F1.25
g21
tp26
g3
((lp27
S'base2'
p28
ag17
atp29
Rp30
I1
tp31
a((F2.25
F1.25
g21
tp32
g30
I2
tp33
a((F2.25
F0.75
g21
tp34
g6
I2
tp35
a((F2.25
F0.75
S'W'
p36
tp37
g6
I2
tp38
a((F1.75
F0.75
g36
tp39
g6
I2
tp40
a((F1.75
F0.75
g1
tp41
g6
I2
tp42
a((F1.75
F0.75
S'S'
p43
tp44
g6
I2
tp45
a((F1.25
F1.25
g43
tp46
g6
I2
tp47
a((F1.25
F1.25
g36
tp48
g6
I2
tp49
a((F0.75
F1.25
g36
tp50
g6
I2
tp51
a((F0.25
F1.25
g36
tp52
g3
((lp53
S'base3'
p54
ag17
atp55
Rp56
I2
tp57
a((F0.25
F1.25
g43
tp58
g56
I3
tp59
a((F0.25
F0.75
g43
tp60
g6
I3
tp61
a((F0.25
F0.75
g1
tp62
g6
I3
tp63
a((F0.75
F0.75
g1
tp64
g6
I3
tp65
a((F0.75
F0.75
g21
tp66
g6
I3
tp67
a((F1.25
F0.25
g21
tp68
g6
I3
tp69
a((F1.25
F0.25
g1
tp70
g6
I3
tp71
a(g12
g6
I3
tp72
a(g14
g19
I3
tp73
a(g22
g19
I4
tp74
a(g24
g6
I4
tp75
a(g26
g30
I4
tp76
a(g32
g30
I6
tp77
a(g32
g30
I2
tp78
a(lp79
S"('F', 'R')"
p80
aS"('F', 'R')"
p81
aS"('F', 'R')"
p82
aS"('F', 'R')"
p83
aS"('T', 'L')"
p84
aS"('F', 'R')"
p85
aS"('F', 'R')"
p86
aS"('S', 'T')"
p87
aS"('B', 'K')"
p88
aS"('T', 'L')"
p89
aS"('F', 'R')"
p90
aS"('T', 'L')"
p91
aS"('T', 'R')"
p92
aS"('B', 'K')"
p93
aS"('T', 'R')"
p94
aS"('F', 'R')"
p95
aS"('F', 'R')"
p96
aS"('T', 'L')"
p97
aS"('F', 'R')"
p98
aS"('T', 'L')"
p99
aS"('F', 'R')"
p100
aS"('T', 'L')"
p101
aS"('B', 'K')"
p102
aS"('T', 'R')"
p103
aS"('F', 'R')"
p104
aS"('F', 'R')"
p105
aS"('T', 'L')"
p106
aS"('F', 'R')"
p107
aS"('F', 'R')"
p108
aS"('S', 'T')"
p109
aS"('S', 'T')"
p110
aS"('B', 'K')"
p111
atp112
.