((lp0
((F0.25
F0.25
S'E'
p1
tp2
c__builtin__
frozenset
p3
((lp4
tp5
Rp6
I0
tp7
a((F0.25
F0.25
S'N'
p8
tp9
g6
I0
tp10
a((F0.25
F0.75
g8
tp11
g6
I0
tp12
a((F0.25
F0.75
g1
tp13
g6
I0
tp14
a((F0.75
F0.75
g1
tp15
g6
I0
tp16
a((F0.75
F0.75
g8
tp17
g6
I0
tp18
a((F1.25
F0.25
g8
tp19
g6
I0
tp20
a((F1.25
F0.25
g1
tp21
g6
I0
tp22
a((F1.75
F0.25
g1
tp23
g6
I0
tp24
a((F2.25
F0.75
g1
tp25
g6
I0
tp26
a((F2.25
F0.75
g8
tp27
g6
I0
tp28
a((F1.75
F0.25
g8
tp29
g6
I0
tp30
a((F1.75
F0.25
g1
tp31
g6
I0
tp32
a((F2.25
F0.25
g1
tp33
g3
((lp34
S'base1'
p35
aS'base'
p36
atp37
Rp38
I0
tp39
a((F2.25
F0.25
g8
tp40
g38
I1
tp41
a((F2.25
F0.75
g8
tp42
g6
I1
tp43
a((F2.25
F1.25
g8
tp44
g3
((lp45
S'base2'
p46
ag36
atp47
Rp48
I1
tp49
a((F2.25
F1.25
g8
tp50
g48
I2
tp51
a((F2.25
F0.75
g8
tp52
g6
I2
tp53
a((F2.25
F0.75
S'W'
p54
tp55
g6
I2
tp56
a((F1.75
F0.25
g54
tp57
g6
I2
tp58
a((F2.25
F0.25
g54
tp59
g38
I2
tp60
a((F2.25
F0.25
g8
tp61
g38
I2
tp62
a(g42
g6
I2
tp63
ag56
a((F1.75
F0.75
g54
tp64
g6
I2
tp65
a((F1.75
F0.75
S'S'
p66
tp67
g6
I2
tp68
a((F1.75
F1.25
g66
tp69
g6
I2
tp70
a((F1.75
F1.25
g1
tp71
g6
I2
tp72
a((F2.25
F1.25
g1
tp73
g48
I2
tp74
a((F2.25
F1.25
g66
tp75
g48
I2
tp76
a((F2.25
F0.75
g66
tp77
g6
I2
tp78
a((F2.25
F0.75
g54
tp79
g6
I2
tp80
a((F1.75
F1.25
g54
tp81
g6
I2
tp82
a((F2.25
F0.75
g54
tp83
g6
I2
tp84
ag65
ag68
a((F1.25
F1.25
g66
tp85
g6
I2
tp86
a((F1.25
F1.25
g54
tp87
g6
I2
tp88
a((F0.75
F1.25
g54
tp89
g6
I2
tp90
a((F0.25
F1.25
g54
tp91
g3
((lp92
S'base3'
p93
ag36
atp94
Rp95
I2
tp96
a((F0.25
F1.25
g66
tp97
g95
I3
tp98
a((F0.25
F0.75
g66
tp99
g6
I3
tp100
a((F0.25
F0.75
g1
tp101
g6
I3
tp102
a(g15
g6
I3
tp103
a(g17
g6
I3
tp104
a((F0.25
F0.25
g8
tp105
g6
I3
tp106
a(g11
g6
I3
tp107
a(lp108
S"('T', 'L')"
p109
aS"('F', 'R')"
p110
aS"('T', 'R')"
p111
aS"('F', 'R')"
p112
aS"('T', 'L')"
p113
aS"('B', 'K')"
p114
aS"('T', 'R')"
p115
aS"('F', 'R')"
p116
aS"('F', 'R')"
p117
aS"('T', 'L')"
p118
aS"('B', 'K')"
p119
aS"('T', 'R')"
p120
aS"('F', 'R')"
p121
aS"('T', 'L')"
p122
aS"('F', 'R')"
p123
aS"('F', 'R')"
p124
aS"('S', 'T')"
p125
aS"('B', 'K')"
p126
aS"('T', 'L')"
p127
aS"('F', 'R')"
p128
aS"('B', 'K')"
p129
aS"('T', 'R')"
p130
aS"('F', 'R')"
p131
aS"('T', 'L')"
p132
aS"('F', 'R')"
p133
aS"('T', 'L')"
p134
aS"('B', 'K')"
p135
aS"('T', 'L')"
p136
aS"('F', 'R')"
p137
aS"('T', 'R')"
p138
aS"('F', 'R')"
p139
aS"('T', 'R')"
p140
aS"('F', 'R')"
p141
aS"('B', 'K')"
p142
aS"('F', 'R')"
p143
aS"('T', 'L')"
p144
aS"('B', 'K')"
p145
aS"('T', 'R')"
p146
aS"('F', 'R')"
p147
aS"('F', 'R')"
p148
aS"('T', 'L')"
p149
aS"('F', 'R')"
p150
aS"('T', 'L')"
p151
aS"('F', 'R')"
p152
aS"('T', 'L')"
p153
aS"('B', 'K')"
p154
aS"('F', 'R')"
p155
aS"('T', 'R')"
p156
atp157
.