((dp0
(F1.75
F0.25
tp1
(dp2
c__builtin__
frozenset
p3
((lp4
tp5
Rp6
F1.0
ss(F2.25
F0.25
tp7
(dp8
g3
((lp9
S'base1'
p10
aS'base'
p11
atp12
Rp13
F1.0
sg6
F0.0
ss(F1.75
F1.25
tp14
(dp15
g6
F1.0
ss(F0.75
F0.75
tp16
(dp17
g6
F1.0
ss(F0.75
F1.25
tp18
(dp19
g6
F1.0
ss(F0.75
F0.25
tp20
(dp21
g6
F1.0
ss(F0.25
F1.25
tp22
(dp23
g6
F0.0
sg3
((lp24
S'base3'
p25
ag11
atp26
Rp27
F1.0
ss(F2.25
F1.25
tp28
(dp29
g3
((lp30
S'base2'
p31
ag11
atp32
Rp33
F1.0
sg6
F0.0
ss(F1.25
F0.75
tp34
(dp35
g6
F0.9
sg3
((lp36
S'obstacle'
p37
aS'low'
p38
atp39
Rp40
F0.1
ss(F1.25
F0.25
tp41
(dp42
g6
F1.0
ss(F0.25
F0.75
tp43
(dp44
g6
F1.0
ss(F0.25
F0.25
tp45
(dp46
g6
F1.0
ss(F1.25
F1.25
tp47
(dp48
g6
F1.0
ss(F2.25
F0.75
tp49
(dp50
g6
F1.0
ss(F1.75
F0.75
tp51
(dp52
g6
F1.0
ssF0.25
tp53
.